
NixieClock_m328.elf:     file format elf32-avr

Sections:
Idx Name          Size      VMA       LMA       File off  Algn
  0 .data         00000000  00800100  00800100  00002818  2**0
                  CONTENTS, ALLOC, LOAD, DATA
  1 .text         000027a4  00000000  00000000  00000074  2**1
                  CONTENTS, ALLOC, LOAD, READONLY, CODE
  2 .bss          00000116  00800100  00800100  00002818  2**0
                  ALLOC
  3 .comment      00000030  00000000  00000000  00002818  2**0
                  CONTENTS, READONLY
  4 .note.gnu.avr.deviceinfo 00000040  00000000  00000000  00002848  2**2
                  CONTENTS, READONLY
  5 .debug_info   000005f4  00000000  00000000  00002888  2**0
                  CONTENTS, READONLY, DEBUGGING
  6 .debug_abbrev 000005a2  00000000  00000000  00002e7c  2**0
                  CONTENTS, READONLY, DEBUGGING
  7 .debug_line   00000133  00000000  00000000  0000341e  2**0
                  CONTENTS, READONLY, DEBUGGING
  8 .debug_str    00000208  00000000  00000000  00003551  2**0
                  CONTENTS, READONLY, DEBUGGING

Disassembly of section .text:

00000000 <__vectors>:
       0:	0c 94 9b 00 	jmp	0x136	; 0x136 <__ctors_end>
       4:	0c 94 ad 00 	jmp	0x15a	; 0x15a <__bad_interrupt>
       8:	0c 94 ad 00 	jmp	0x15a	; 0x15a <__bad_interrupt>
       c:	0c 94 ad 00 	jmp	0x15a	; 0x15a <__bad_interrupt>
      10:	0c 94 ad 00 	jmp	0x15a	; 0x15a <__bad_interrupt>
      14:	0c 94 ad 00 	jmp	0x15a	; 0x15a <__bad_interrupt>
      18:	0c 94 ad 00 	jmp	0x15a	; 0x15a <__bad_interrupt>
      1c:	0c 94 ad 00 	jmp	0x15a	; 0x15a <__bad_interrupt>
      20:	0c 94 ad 00 	jmp	0x15a	; 0x15a <__bad_interrupt>
      24:	0c 94 fd 12 	jmp	0x25fa	; 0x25fa <__vector_9>
      28:	0c 94 ad 00 	jmp	0x15a	; 0x15a <__bad_interrupt>
      2c:	0c 94 78 13 	jmp	0x26f0	; 0x26f0 <__vector_11>
      30:	0c 94 ad 00 	jmp	0x15a	; 0x15a <__bad_interrupt>
      34:	0c 94 ad 00 	jmp	0x15a	; 0x15a <__bad_interrupt>
      38:	0c 94 ad 00 	jmp	0x15a	; 0x15a <__bad_interrupt>
      3c:	0c 94 ad 00 	jmp	0x15a	; 0x15a <__bad_interrupt>
      40:	0c 94 ad 00 	jmp	0x15a	; 0x15a <__bad_interrupt>
      44:	0c 94 ad 00 	jmp	0x15a	; 0x15a <__bad_interrupt>
      48:	0c 94 ad 00 	jmp	0x15a	; 0x15a <__bad_interrupt>
      4c:	0c 94 ad 00 	jmp	0x15a	; 0x15a <__bad_interrupt>
      50:	0c 94 ad 00 	jmp	0x15a	; 0x15a <__bad_interrupt>
      54:	0c 94 ad 00 	jmp	0x15a	; 0x15a <__bad_interrupt>
      58:	0c 94 ad 00 	jmp	0x15a	; 0x15a <__bad_interrupt>
      5c:	0c 94 ad 00 	jmp	0x15a	; 0x15a <__bad_interrupt>
      60:	0c 94 ad 00 	jmp	0x15a	; 0x15a <__bad_interrupt>
      64:	0c 94 ad 00 	jmp	0x15a	; 0x15a <__bad_interrupt>
      68:	53 0e       	add	r5, r19
      6a:	5a 0e       	add	r5, r26
      6c:	60 0e       	add	r6, r16
      6e:	66 0f       	add	r22, r22
      70:	66 0f       	add	r22, r22
      72:	66 0f       	add	r22, r22
      74:	66 0f       	add	r22, r22
      76:	66 0f       	add	r22, r22
      78:	66 0f       	add	r22, r22
      7a:	66 0f       	add	r22, r22
      7c:	81 0e       	add	r8, r17
      7e:	88 0e       	add	r8, r24
      80:	8e 0e       	add	r8, r30
      82:	66 0f       	add	r22, r22
      84:	66 0f       	add	r22, r22
      86:	66 0f       	add	r22, r22
      88:	66 0f       	add	r22, r22
      8a:	66 0f       	add	r22, r22
      8c:	66 0f       	add	r22, r22
      8e:	9a 0e       	add	r9, r26
      90:	a5 0e       	add	r10, r21
      92:	ab 0e       	add	r10, r27
      94:	66 0f       	add	r22, r22
      96:	66 0f       	add	r22, r22
      98:	66 0f       	add	r22, r22
      9a:	66 0f       	add	r22, r22
      9c:	66 0f       	add	r22, r22
      9e:	66 0f       	add	r22, r22
      a0:	66 0f       	add	r22, r22
      a2:	b1 0e       	add	r11, r17
      a4:	bc 0e       	add	r11, r28
      a6:	c5 0e       	add	r12, r21
      a8:	ce 0e       	add	r12, r30
      aa:	d9 0e       	add	r13, r25
      ac:	f3 0e       	add	r15, r19
      ae:	fe 0e       	add	r15, r30
      b0:	18 0f       	add	r17, r24
      b2:	66 0f       	add	r22, r22
      b4:	66 0f       	add	r22, r22
      b6:	2a 0f       	add	r18, r26
      b8:	35 0f       	add	r19, r21
      ba:	40 0f       	add	r20, r16
      bc:	66 0f       	add	r22, r22
      be:	66 0f       	add	r22, r22
      c0:	66 0f       	add	r22, r22
      c2:	66 0f       	add	r22, r22
      c4:	66 0f       	add	r22, r22
      c6:	66 0f       	add	r22, r22
      c8:	66 0f       	add	r22, r22
      ca:	4b 0f       	add	r20, r27
      cc:	56 0f       	add	r21, r22
      ce:	7c 0f       	add	r23, r28
      d0:	da 0f       	add	r29, r26
      d2:	da 0f       	add	r29, r26
      d4:	da 0f       	add	r29, r26
      d6:	da 0f       	add	r29, r26
      d8:	da 0f       	add	r29, r26
      da:	da 0f       	add	r29, r26
      dc:	da 0f       	add	r29, r26
      de:	da 0f       	add	r29, r26
      e0:	da 0f       	add	r29, r26
      e2:	da 0f       	add	r29, r26
      e4:	da 0f       	add	r29, r26
      e6:	da 0f       	add	r29, r26
      e8:	da 0f       	add	r29, r26
      ea:	da 0f       	add	r29, r26
      ec:	da 0f       	add	r29, r26
      ee:	da 0f       	add	r29, r26
      f0:	da 0f       	add	r29, r26
      f2:	da 0f       	add	r29, r26
      f4:	da 0f       	add	r29, r26
      f6:	86 0f       	add	r24, r22
      f8:	8b 0f       	add	r24, r27
      fa:	8e 0f       	add	r24, r30
      fc:	da 0f       	add	r29, r26
      fe:	da 0f       	add	r29, r26
     100:	da 0f       	add	r29, r26
     102:	da 0f       	add	r29, r26
     104:	da 0f       	add	r29, r26
     106:	da 0f       	add	r29, r26
     108:	da 0f       	add	r29, r26
     10a:	98 0f       	add	r25, r24
     10c:	9f 0f       	add	r25, r31
     10e:	9f 0f       	add	r25, r31
     110:	ac 0f       	add	r26, r28
     112:	ac 0f       	add	r26, r28
     114:	b3 0f       	add	r27, r19
     116:	b3 0f       	add	r27, r19
     118:	ba 0f       	add	r27, r26
     11a:	da 0f       	add	r29, r26
     11c:	da 0f       	add	r29, r26
     11e:	c5 0f       	add	r28, r21
     120:	c8 0f       	add	r28, r24
     122:	cb 0f       	add	r28, r27
     124:	da 0f       	add	r29, r26
     126:	da 0f       	add	r29, r26
     128:	da 0f       	add	r29, r26
     12a:	da 0f       	add	r29, r26
     12c:	da 0f       	add	r29, r26
     12e:	da 0f       	add	r29, r26
     130:	da 0f       	add	r29, r26
     132:	ce 0f       	add	r28, r30
     134:	d3 0f       	add	r29, r19

00000136 <__ctors_end>:
     136:	11 24       	eor	r1, r1
     138:	1f be       	out	0x3f, r1	; 63
     13a:	cf ef       	ldi	r28, 0xFF	; 255
     13c:	d8 e0       	ldi	r29, 0x08	; 8
     13e:	de bf       	out	0x3e, r29	; 62
     140:	cd bf       	out	0x3d, r28	; 61

00000142 <__do_clear_bss>:
     142:	22 e0       	ldi	r18, 0x02	; 2
     144:	a0 e0       	ldi	r26, 0x00	; 0
     146:	b1 e0       	ldi	r27, 0x01	; 1
     148:	01 c0       	rjmp	.+2      	; 0x14c <.do_clear_bss_start>

0000014a <.do_clear_bss_loop>:
     14a:	1d 92       	st	X+, r1

0000014c <.do_clear_bss_start>:
     14c:	a6 31       	cpi	r26, 0x16	; 22
     14e:	b2 07       	cpc	r27, r18
     150:	e1 f7       	brne	.-8      	; 0x14a <.do_clear_bss_loop>
     152:	0e 94 84 10 	call	0x2108	; 0x2108 <main>
     156:	0c 94 d0 13 	jmp	0x27a0	; 0x27a0 <_exit>

0000015a <__bad_interrupt>:
     15a:	0c 94 00 00 	jmp	0	; 0x0 <__vectors>

0000015e <Analog_Init>:
     15e:	ec e7       	ldi	r30, 0x7C	; 124
     160:	f0 e0       	ldi	r31, 0x00	; 0
     162:	80 81       	ld	r24, Z
     164:	80 83       	st	Z, r24
     166:	ea e7       	ldi	r30, 0x7A	; 122
     168:	f0 e0       	ldi	r31, 0x00	; 0
     16a:	80 81       	ld	r24, Z
     16c:	86 68       	ori	r24, 0x86	; 134
     16e:	80 83       	st	Z, r24
     170:	e0 e0       	ldi	r30, 0x00	; 0
     172:	f1 e0       	ldi	r31, 0x01	; 1
     174:	12 82       	std	Z+2, r1	; 0x02
     176:	81 e0       	ldi	r24, 0x01	; 1
     178:	80 83       	st	Z, r24
     17a:	11 82       	std	Z+1, r1	; 0x01
     17c:	08 95       	ret

0000017e <Analog_loop>:
     17e:	80 91 00 01 	lds	r24, 0x0100	; 0x800100 <_edata>
     182:	88 23       	and	r24, r24
     184:	09 f4       	brne	.+2      	; 0x188 <Analog_loop+0xa>
     186:	75 c0       	rjmp	.+234    	; 0x272 <Analog_loop+0xf4>
     188:	80 91 01 01 	lds	r24, 0x0101	; 0x800101 <_edata+0x1>
     18c:	81 30       	cpi	r24, 0x01	; 1
     18e:	11 f1       	breq	.+68     	; 0x1d4 <Analog_loop+0x56>
     190:	18 f0       	brcs	.+6      	; 0x198 <Analog_loop+0x1a>
     192:	82 30       	cpi	r24, 0x02	; 2
     194:	81 f1       	breq	.+96     	; 0x1f6 <Analog_loop+0x78>
     196:	51 c0       	rjmp	.+162    	; 0x23a <Analog_loop+0xbc>
     198:	80 91 02 01 	lds	r24, 0x0102	; 0x800102 <_edata+0x2>
     19c:	97 e0       	ldi	r25, 0x07	; 7
     19e:	89 9f       	mul	r24, r25
     1a0:	f0 01       	movw	r30, r0
     1a2:	11 24       	eor	r1, r1
     1a4:	e0 50       	subi	r30, 0x00	; 0
     1a6:	ff 4f       	sbci	r31, 0xFF	; 255
     1a8:	20 85       	ldd	r18, Z+8	; 0x08
     1aa:	31 85       	ldd	r19, Z+9	; 0x09
     1ac:	23 2b       	or	r18, r19
     1ae:	49 f4       	brne	.+18     	; 0x1c2 <Analog_loop+0x44>
     1b0:	26 81       	ldd	r18, Z+6	; 0x06
     1b2:	37 81       	ldd	r19, Z+7	; 0x07
     1b4:	23 2b       	or	r18, r19
     1b6:	29 f0       	breq	.+10     	; 0x1c2 <Analog_loop+0x44>
     1b8:	81 e0       	ldi	r24, 0x01	; 1
     1ba:	80 93 01 01 	sts	0x0101, r24	; 0x800101 <_edata+0x1>
     1be:	13 82       	std	Z+3, r1	; 0x03
     1c0:	3c c0       	rjmp	.+120    	; 0x23a <Analog_loop+0xbc>
     1c2:	8f 5f       	subi	r24, 0xFF	; 255
     1c4:	86 30       	cpi	r24, 0x06	; 6
     1c6:	18 f4       	brcc	.+6      	; 0x1ce <Analog_loop+0x50>
     1c8:	80 93 02 01 	sts	0x0102, r24	; 0x800102 <_edata+0x2>
     1cc:	36 c0       	rjmp	.+108    	; 0x23a <Analog_loop+0xbc>
     1ce:	10 92 02 01 	sts	0x0102, r1	; 0x800102 <_edata+0x2>
     1d2:	33 c0       	rjmp	.+102    	; 0x23a <Analog_loop+0xbc>
     1d4:	80 91 7c 00 	lds	r24, 0x007C	; 0x80007c <__TEXT_REGION_LENGTH__+0x7e007c>
     1d8:	80 7f       	andi	r24, 0xF0	; 240
     1da:	90 91 02 01 	lds	r25, 0x0102	; 0x800102 <_edata+0x2>
     1de:	89 0f       	add	r24, r25
     1e0:	80 93 7c 00 	sts	0x007C, r24	; 0x80007c <__TEXT_REGION_LENGTH__+0x7e007c>
     1e4:	80 91 7a 00 	lds	r24, 0x007A	; 0x80007a <__TEXT_REGION_LENGTH__+0x7e007a>
     1e8:	80 64       	ori	r24, 0x40	; 64
     1ea:	80 93 7a 00 	sts	0x007A, r24	; 0x80007a <__TEXT_REGION_LENGTH__+0x7e007a>
     1ee:	82 e0       	ldi	r24, 0x02	; 2
     1f0:	80 93 01 01 	sts	0x0101, r24	; 0x800101 <_edata+0x1>
     1f4:	22 c0       	rjmp	.+68     	; 0x23a <Analog_loop+0xbc>
     1f6:	80 91 7a 00 	lds	r24, 0x007A	; 0x80007a <__TEXT_REGION_LENGTH__+0x7e007a>
     1fa:	86 fd       	sbrc	r24, 6
     1fc:	1e c0       	rjmp	.+60     	; 0x23a <Analog_loop+0xbc>
     1fe:	80 91 02 01 	lds	r24, 0x0102	; 0x800102 <_edata+0x2>
     202:	20 91 78 00 	lds	r18, 0x0078	; 0x800078 <__TEXT_REGION_LENGTH__+0x7e0078>
     206:	30 91 79 00 	lds	r19, 0x0079	; 0x800079 <__TEXT_REGION_LENGTH__+0x7e0079>
     20a:	97 e0       	ldi	r25, 0x07	; 7
     20c:	89 9f       	mul	r24, r25
     20e:	f0 01       	movw	r30, r0
     210:	11 24       	eor	r1, r1
     212:	e0 50       	subi	r30, 0x00	; 0
     214:	ff 4f       	sbci	r31, 0xFF	; 255
     216:	35 83       	std	Z+5, r19	; 0x05
     218:	24 83       	std	Z+4, r18	; 0x04
     21a:	91 e0       	ldi	r25, 0x01	; 1
     21c:	93 83       	std	Z+3, r25	; 0x03
     21e:	26 81       	ldd	r18, Z+6	; 0x06
     220:	37 81       	ldd	r19, Z+7	; 0x07
     222:	31 87       	std	Z+9, r19	; 0x09
     224:	20 87       	std	Z+8, r18	; 0x08
     226:	8f 5f       	subi	r24, 0xFF	; 255
     228:	86 30       	cpi	r24, 0x06	; 6
     22a:	18 f4       	brcc	.+6      	; 0x232 <Analog_loop+0xb4>
     22c:	80 93 02 01 	sts	0x0102, r24	; 0x800102 <_edata+0x2>
     230:	02 c0       	rjmp	.+4      	; 0x236 <Analog_loop+0xb8>
     232:	10 92 02 01 	sts	0x0102, r1	; 0x800102 <_edata+0x2>
     236:	10 92 01 01 	sts	0x0101, r1	; 0x800101 <_edata+0x1>
     23a:	0e 94 6f 13 	call	0x26de	; 0x26de <Timer_Pulse_10ms>
     23e:	e0 e0       	ldi	r30, 0x00	; 0
     240:	f1 e0       	ldi	r31, 0x01	; 1
     242:	20 85       	ldd	r18, Z+8	; 0x08
     244:	31 85       	ldd	r19, Z+9	; 0x09
     246:	21 15       	cp	r18, r1
     248:	31 05       	cpc	r19, r1
     24a:	41 f0       	breq	.+16     	; 0x25c <Analog_loop+0xde>
     24c:	61 e0       	ldi	r22, 0x01	; 1
     24e:	90 e0       	ldi	r25, 0x00	; 0
     250:	81 11       	cpse	r24, r1
     252:	01 c0       	rjmp	.+2      	; 0x256 <Analog_loop+0xd8>
     254:	60 e0       	ldi	r22, 0x00	; 0
     256:	46 2f       	mov	r20, r22
     258:	59 2f       	mov	r21, r25
     25a:	02 c0       	rjmp	.+4      	; 0x260 <Analog_loop+0xe2>
     25c:	40 e0       	ldi	r20, 0x00	; 0
     25e:	50 e0       	ldi	r21, 0x00	; 0
     260:	24 1b       	sub	r18, r20
     262:	35 0b       	sbc	r19, r21
     264:	31 87       	std	Z+9, r19	; 0x09
     266:	20 87       	std	Z+8, r18	; 0x08
     268:	37 96       	adiw	r30, 0x07	; 7
     26a:	91 e0       	ldi	r25, 0x01	; 1
     26c:	ea 32       	cpi	r30, 0x2A	; 42
     26e:	f9 07       	cpc	r31, r25
     270:	41 f7       	brne	.-48     	; 0x242 <Analog_loop+0xc4>
     272:	08 95       	ret

00000274 <Analog_Channel_Init>:
     274:	86 30       	cpi	r24, 0x06	; 6
     276:	50 f4       	brcc	.+20     	; 0x28c <Analog_Channel_Init+0x18>
     278:	97 e0       	ldi	r25, 0x07	; 7
     27a:	89 9f       	mul	r24, r25
     27c:	f0 01       	movw	r30, r0
     27e:	11 24       	eor	r1, r1
     280:	e0 50       	subi	r30, 0x00	; 0
     282:	ff 4f       	sbci	r31, 0xFF	; 255
     284:	77 83       	std	Z+7, r23	; 0x07
     286:	66 83       	std	Z+6, r22	; 0x06
     288:	81 e0       	ldi	r24, 0x01	; 1
     28a:	08 95       	ret
     28c:	8f ef       	ldi	r24, 0xFF	; 255
     28e:	08 95       	ret

00000290 <Analog_Channel_Read>:
     290:	28 2f       	mov	r18, r24
     292:	30 e0       	ldi	r19, 0x00	; 0
     294:	97 e0       	ldi	r25, 0x07	; 7
     296:	89 9f       	mul	r24, r25
     298:	f0 01       	movw	r30, r0
     29a:	11 24       	eor	r1, r1
     29c:	e0 50       	subi	r30, 0x00	; 0
     29e:	ff 4f       	sbci	r31, 0xFF	; 255
     2a0:	83 81       	ldd	r24, Z+3	; 0x03
     2a2:	81 11       	cpse	r24, r1
     2a4:	13 82       	std	Z+3, r1	; 0x03
     2a6:	87 e0       	ldi	r24, 0x07	; 7
     2a8:	82 9f       	mul	r24, r18
     2aa:	f0 01       	movw	r30, r0
     2ac:	83 9f       	mul	r24, r19
     2ae:	f0 0d       	add	r31, r0
     2b0:	11 24       	eor	r1, r1
     2b2:	e0 50       	subi	r30, 0x00	; 0
     2b4:	ff 4f       	sbci	r31, 0xFF	; 255
     2b6:	84 81       	ldd	r24, Z+4	; 0x04
     2b8:	95 81       	ldd	r25, Z+5	; 0x05
     2ba:	08 95       	ret

000002bc <Analog_Channel_Ready>:
     2bc:	27 e0       	ldi	r18, 0x07	; 7
     2be:	82 9f       	mul	r24, r18
     2c0:	c0 01       	movw	r24, r0
     2c2:	11 24       	eor	r1, r1
     2c4:	fc 01       	movw	r30, r24
     2c6:	e0 50       	subi	r30, 0x00	; 0
     2c8:	ff 4f       	sbci	r31, 0xFF	; 255
     2ca:	83 81       	ldd	r24, Z+3	; 0x03
     2cc:	08 95       	ret

000002ce <BCDToDecimal>:
     2ce:	98 2f       	mov	r25, r24
     2d0:	90 7f       	andi	r25, 0xF0	; 240
     2d2:	90 3a       	cpi	r25, 0xA0	; 160
     2d4:	60 f4       	brcc	.+24     	; 0x2ee <BCDToDecimal+0x20>
     2d6:	98 2f       	mov	r25, r24
     2d8:	9f 70       	andi	r25, 0x0F	; 15
     2da:	9a 30       	cpi	r25, 0x0A	; 10
     2dc:	40 f4       	brcc	.+16     	; 0x2ee <BCDToDecimal+0x20>
     2de:	82 95       	swap	r24
     2e0:	8f 70       	andi	r24, 0x0F	; 15
     2e2:	2a e0       	ldi	r18, 0x0A	; 10
     2e4:	82 9f       	mul	r24, r18
     2e6:	90 0d       	add	r25, r0
     2e8:	11 24       	eor	r1, r1
     2ea:	89 2f       	mov	r24, r25
     2ec:	08 95       	ret
     2ee:	80 e0       	ldi	r24, 0x00	; 0
     2f0:	08 95       	ret

000002f2 <DecimalToBCD>:
     2f2:	28 2f       	mov	r18, r24
     2f4:	84 36       	cpi	r24, 0x64	; 100
     2f6:	90 f4       	brcc	.+36     	; 0x31c <DecimalToBCD+0x2a>
     2f8:	6a e0       	ldi	r22, 0x0A	; 10
     2fa:	0e 94 89 13 	call	0x2712	; 0x2712 <__udivmodqi4>
     2fe:	39 2f       	mov	r19, r25
     300:	82 2f       	mov	r24, r18
     302:	90 e0       	ldi	r25, 0x00	; 0
     304:	83 1b       	sub	r24, r19
     306:	91 09       	sbc	r25, r1
     308:	6a e0       	ldi	r22, 0x0A	; 10
     30a:	70 e0       	ldi	r23, 0x00	; 0
     30c:	0e 94 a9 13 	call	0x2752	; 0x2752 <__divmodhi4>
     310:	83 2f       	mov	r24, r19
     312:	90 e1       	ldi	r25, 0x10	; 16
     314:	69 9f       	mul	r22, r25
     316:	80 0d       	add	r24, r0
     318:	11 24       	eor	r1, r1
     31a:	08 95       	ret
     31c:	80 e0       	ldi	r24, 0x00	; 0
     31e:	08 95       	ret

00000320 <DS1307_Loop>:
     320:	0f 93       	push	r16
     322:	80 91 3b 01 	lds	r24, 0x013B	; 0x80013b <DS1307+0xd>
     326:	8b 30       	cpi	r24, 0x0B	; 11
     328:	09 f4       	brne	.+2      	; 0x32c <DS1307_Loop+0xc>
     32a:	79 c1       	rjmp	.+754    	; 0x61e <__LOCK_REGION_LENGTH__+0x21e>
     32c:	90 f4       	brcc	.+36     	; 0x352 <DS1307_Loop+0x32>
     32e:	82 30       	cpi	r24, 0x02	; 2
     330:	09 f4       	brne	.+2      	; 0x334 <DS1307_Loop+0x14>
     332:	48 c0       	rjmp	.+144    	; 0x3c4 <DS1307_Loop+0xa4>
     334:	28 f4       	brcc	.+10     	; 0x340 <DS1307_Loop+0x20>
     336:	88 23       	and	r24, r24
     338:	09 f1       	breq	.+66     	; 0x37c <DS1307_Loop+0x5c>
     33a:	81 30       	cpi	r24, 0x01	; 1
     33c:	79 f1       	breq	.+94     	; 0x39c <DS1307_Loop+0x7c>
     33e:	e4 c2       	rjmp	.+1480   	; 0x908 <__stack+0x9>
     340:	84 30       	cpi	r24, 0x04	; 4
     342:	09 f4       	brne	.+2      	; 0x346 <DS1307_Loop+0x26>
     344:	be c0       	rjmp	.+380    	; 0x4c2 <__LOCK_REGION_LENGTH__+0xc2>
     346:	08 f4       	brcc	.+2      	; 0x34a <DS1307_Loop+0x2a>
     348:	87 c0       	rjmp	.+270    	; 0x458 <__LOCK_REGION_LENGTH__+0x58>
     34a:	85 30       	cpi	r24, 0x05	; 5
     34c:	09 f4       	brne	.+2      	; 0x350 <DS1307_Loop+0x30>
     34e:	29 c1       	rjmp	.+594    	; 0x5a2 <__LOCK_REGION_LENGTH__+0x1a2>
     350:	db c2       	rjmp	.+1462   	; 0x908 <__stack+0x9>
     352:	8e 30       	cpi	r24, 0x0E	; 14
     354:	09 f4       	brne	.+2      	; 0x358 <DS1307_Loop+0x38>
     356:	3d c2       	rjmp	.+1146   	; 0x7d2 <__LOCK_REGION_LENGTH__+0x3d2>
     358:	38 f4       	brcc	.+14     	; 0x368 <DS1307_Loop+0x48>
     35a:	8c 30       	cpi	r24, 0x0C	; 12
     35c:	09 f4       	brne	.+2      	; 0x360 <DS1307_Loop+0x40>
     35e:	ac c1       	rjmp	.+856    	; 0x6b8 <__LOCK_REGION_LENGTH__+0x2b8>
     360:	8d 30       	cpi	r24, 0x0D	; 13
     362:	09 f4       	brne	.+2      	; 0x366 <DS1307_Loop+0x46>
     364:	d6 c1       	rjmp	.+940    	; 0x712 <__LOCK_REGION_LENGTH__+0x312>
     366:	d0 c2       	rjmp	.+1440   	; 0x908 <__stack+0x9>
     368:	86 31       	cpi	r24, 0x16	; 22
     36a:	09 f4       	brne	.+2      	; 0x36e <DS1307_Loop+0x4e>
     36c:	85 c2       	rjmp	.+1290   	; 0x878 <__LOCK_REGION_LENGTH__+0x478>
     36e:	83 36       	cpi	r24, 0x63	; 99
     370:	09 f4       	brne	.+2      	; 0x374 <DS1307_Loop+0x54>
     372:	a9 c2       	rjmp	.+1362   	; 0x8c6 <__LOCK_REGION_LENGTH__+0x4c6>
     374:	85 31       	cpi	r24, 0x15	; 21
     376:	09 f0       	breq	.+2      	; 0x37a <DS1307_Loop+0x5a>
     378:	c7 c2       	rjmp	.+1422   	; 0x908 <__stack+0x9>
     37a:	5b c2       	rjmp	.+1206   	; 0x832 <__LOCK_REGION_LENGTH__+0x432>
     37c:	80 91 3a 01 	lds	r24, 0x013A	; 0x80013a <DS1307+0xc>
     380:	88 23       	and	r24, r24
     382:	31 f0       	breq	.+12     	; 0x390 <DS1307_Loop+0x70>
     384:	80 91 41 01 	lds	r24, 0x0141	; 0x800141 <DS1307+0x13>
     388:	88 23       	and	r24, r24
     38a:	09 f4       	brne	.+2      	; 0x38e <DS1307_Loop+0x6e>
     38c:	bd c2       	rjmp	.+1402   	; 0x908 <__stack+0x9>
     38e:	98 c2       	rjmp	.+1328   	; 0x8c0 <__LOCK_REGION_LENGTH__+0x4c0>
     390:	80 91 3c 01 	lds	r24, 0x013C	; 0x80013c <DS1307+0xe>
     394:	81 11       	cpse	r24, r1
     396:	bc c2       	rjmp	.+1400   	; 0x910 <__stack+0x11>
     398:	81 e0       	ldi	r24, 0x01	; 1
     39a:	11 c0       	rjmp	.+34     	; 0x3be <DS1307_Loop+0x9e>
     39c:	80 91 3f 01 	lds	r24, 0x013F	; 0x80013f <DS1307+0x11>
     3a0:	81 11       	cpse	r24, r1
     3a2:	07 c0       	rjmp	.+14     	; 0x3b2 <DS1307_Loop+0x92>
     3a4:	68 e6       	ldi	r22, 0x68	; 104
     3a6:	87 e0       	ldi	r24, 0x07	; 7
     3a8:	0e 94 a6 07 	call	0xf4c	; 0xf4c <I2C_Get_Ident>
     3ac:	80 93 3f 01 	sts	0x013F, r24	; 0x80013f <DS1307+0x11>
     3b0:	ab c2       	rjmp	.+1366   	; 0x908 <__stack+0x9>
     3b2:	0e 94 5f 07 	call	0xebe	; 0xebe <I2C_Ready>
     3b6:	88 23       	and	r24, r24
     3b8:	09 f4       	brne	.+2      	; 0x3bc <DS1307_Loop+0x9c>
     3ba:	a6 c2       	rjmp	.+1356   	; 0x908 <__stack+0x9>
     3bc:	85 e0       	ldi	r24, 0x05	; 5
     3be:	80 93 41 01 	sts	0x0141, r24	; 0x800141 <DS1307+0x13>
     3c2:	7e c2       	rjmp	.+1276   	; 0x8c0 <__LOCK_REGION_LENGTH__+0x4c0>
     3c4:	80 91 3f 01 	lds	r24, 0x013F	; 0x80013f <DS1307+0x11>
     3c8:	0e 94 5f 07 	call	0xebe	; 0xebe <I2C_Ready>
     3cc:	90 91 3e 01 	lds	r25, 0x013E	; 0x80013e <DS1307+0x10>
     3d0:	88 23       	and	r24, r24
     3d2:	41 f0       	breq	.+16     	; 0x3e4 <DS1307_Loop+0xc4>
     3d4:	91 11       	cpse	r25, r1
     3d6:	06 c0       	rjmp	.+12     	; 0x3e4 <DS1307_Loop+0xc4>
     3d8:	10 92 44 01 	sts	0x0144, r1	; 0x800144 <DS1307+0x16>
     3dc:	00 91 3f 01 	lds	r16, 0x013F	; 0x80013f <DS1307+0x11>
     3e0:	23 e0       	ldi	r18, 0x03	; 3
     3e2:	ef c0       	rjmp	.+478    	; 0x5c2 <__LOCK_REGION_LENGTH__+0x1c2>
     3e4:	99 23       	and	r25, r25
     3e6:	09 f4       	brne	.+2      	; 0x3ea <DS1307_Loop+0xca>
     3e8:	8f c2       	rjmp	.+1310   	; 0x908 <__stack+0x9>
     3ea:	10 92 3e 01 	sts	0x013E, r1	; 0x80013e <DS1307+0x10>
     3ee:	80 91 45 01 	lds	r24, 0x0145	; 0x800145 <DS1307+0x17>
     3f2:	8f 77       	andi	r24, 0x7F	; 127
     3f4:	0e 94 67 01 	call	0x2ce	; 0x2ce <BCDToDecimal>
     3f8:	80 93 2e 01 	sts	0x012E, r24	; 0x80012e <DS1307>
     3fc:	80 91 46 01 	lds	r24, 0x0146	; 0x800146 <DS1307+0x18>
     400:	8f 77       	andi	r24, 0x7F	; 127
     402:	0e 94 67 01 	call	0x2ce	; 0x2ce <BCDToDecimal>
     406:	80 93 2f 01 	sts	0x012F, r24	; 0x80012f <DS1307+0x1>
     40a:	90 91 35 01 	lds	r25, 0x0135	; 0x800135 <DS1307+0x7>
     40e:	80 91 47 01 	lds	r24, 0x0147	; 0x800147 <DS1307+0x19>
     412:	99 23       	and	r25, r25
     414:	59 f0       	breq	.+22     	; 0x42c <__LOCK_REGION_LENGTH__+0x2c>
     416:	8f 71       	andi	r24, 0x1F	; 31
     418:	0e 94 67 01 	call	0x2ce	; 0x2ce <BCDToDecimal>
     41c:	80 93 30 01 	sts	0x0130, r24	; 0x800130 <DS1307+0x2>
     420:	80 91 47 01 	lds	r24, 0x0147	; 0x800147 <DS1307+0x19>
     424:	80 72       	andi	r24, 0x20	; 32
     426:	80 93 3d 01 	sts	0x013D, r24	; 0x80013d <DS1307+0xf>
     42a:	05 c0       	rjmp	.+10     	; 0x436 <__LOCK_REGION_LENGTH__+0x36>
     42c:	8f 73       	andi	r24, 0x3F	; 63
     42e:	0e 94 67 01 	call	0x2ce	; 0x2ce <BCDToDecimal>
     432:	80 93 30 01 	sts	0x0130, r24	; 0x800130 <DS1307+0x2>
     436:	e0 91 42 01 	lds	r30, 0x0142	; 0x800142 <DS1307+0x14>
     43a:	f0 91 43 01 	lds	r31, 0x0143	; 0x800143 <DS1307+0x15>
     43e:	30 97       	sbiw	r30, 0x00	; 0
     440:	09 f4       	brne	.+2      	; 0x444 <__LOCK_REGION_LENGTH__+0x44>
     442:	06 c2       	rjmp	.+1036   	; 0x850 <__LOCK_REGION_LENGTH__+0x450>
     444:	80 91 2e 01 	lds	r24, 0x012E	; 0x80012e <DS1307>
     448:	90 91 2f 01 	lds	r25, 0x012F	; 0x80012f <DS1307+0x1>
     44c:	a0 91 30 01 	lds	r26, 0x0130	; 0x800130 <DS1307+0x2>
     450:	80 83       	st	Z, r24
     452:	91 83       	std	Z+1, r25	; 0x01
     454:	a2 83       	std	Z+2, r26	; 0x02
     456:	fc c1       	rjmp	.+1016   	; 0x850 <__LOCK_REGION_LENGTH__+0x450>
     458:	80 91 3f 01 	lds	r24, 0x013F	; 0x80013f <DS1307+0x11>
     45c:	0e 94 5f 07 	call	0xebe	; 0xebe <I2C_Ready>
     460:	90 91 3e 01 	lds	r25, 0x013E	; 0x80013e <DS1307+0x10>
     464:	88 23       	and	r24, r24
     466:	31 f0       	breq	.+12     	; 0x474 <__LOCK_REGION_LENGTH__+0x74>
     468:	91 11       	cpse	r25, r1
     46a:	04 c0       	rjmp	.+8      	; 0x474 <__LOCK_REGION_LENGTH__+0x74>
     46c:	84 e0       	ldi	r24, 0x04	; 4
     46e:	80 93 44 01 	sts	0x0144, r24	; 0x800144 <DS1307+0x16>
     472:	33 c0       	rjmp	.+102    	; 0x4da <__LOCK_REGION_LENGTH__+0xda>
     474:	99 23       	and	r25, r25
     476:	09 f4       	brne	.+2      	; 0x47a <__LOCK_REGION_LENGTH__+0x7a>
     478:	47 c2       	rjmp	.+1166   	; 0x908 <__stack+0x9>
     47a:	10 92 3e 01 	sts	0x013E, r1	; 0x80013e <DS1307+0x10>
     47e:	80 91 45 01 	lds	r24, 0x0145	; 0x800145 <DS1307+0x17>
     482:	8f 73       	andi	r24, 0x3F	; 63
     484:	0e 94 67 01 	call	0x2ce	; 0x2ce <BCDToDecimal>
     488:	80 93 31 01 	sts	0x0131, r24	; 0x800131 <DS1307+0x3>
     48c:	80 91 46 01 	lds	r24, 0x0146	; 0x800146 <DS1307+0x18>
     490:	8f 71       	andi	r24, 0x1F	; 31
     492:	0e 94 67 01 	call	0x2ce	; 0x2ce <BCDToDecimal>
     496:	80 93 32 01 	sts	0x0132, r24	; 0x800132 <DS1307+0x4>
     49a:	80 91 47 01 	lds	r24, 0x0147	; 0x800147 <DS1307+0x19>
     49e:	0e 94 67 01 	call	0x2ce	; 0x2ce <BCDToDecimal>
     4a2:	80 93 33 01 	sts	0x0133, r24	; 0x800133 <DS1307+0x5>
     4a6:	e0 91 42 01 	lds	r30, 0x0142	; 0x800142 <DS1307+0x14>
     4aa:	f0 91 43 01 	lds	r31, 0x0143	; 0x800143 <DS1307+0x15>
     4ae:	30 97       	sbiw	r30, 0x00	; 0
     4b0:	09 f4       	brne	.+2      	; 0x4b4 <__LOCK_REGION_LENGTH__+0xb4>
     4b2:	ce c1       	rjmp	.+924    	; 0x850 <__LOCK_REGION_LENGTH__+0x450>
     4b4:	80 91 31 01 	lds	r24, 0x0131	; 0x800131 <DS1307+0x3>
     4b8:	90 91 32 01 	lds	r25, 0x0132	; 0x800132 <DS1307+0x4>
     4bc:	a0 91 33 01 	lds	r26, 0x0133	; 0x800133 <DS1307+0x5>
     4c0:	c7 cf       	rjmp	.-114    	; 0x450 <__LOCK_REGION_LENGTH__+0x50>
     4c2:	80 91 3f 01 	lds	r24, 0x013F	; 0x80013f <DS1307+0x11>
     4c6:	0e 94 5f 07 	call	0xebe	; 0xebe <I2C_Ready>
     4ca:	90 91 3e 01 	lds	r25, 0x013E	; 0x80013e <DS1307+0x10>
     4ce:	88 23       	and	r24, r24
     4d0:	41 f0       	breq	.+16     	; 0x4e2 <__LOCK_REGION_LENGTH__+0xe2>
     4d2:	91 11       	cpse	r25, r1
     4d4:	06 c0       	rjmp	.+12     	; 0x4e2 <__LOCK_REGION_LENGTH__+0xe2>
     4d6:	10 92 44 01 	sts	0x0144, r1	; 0x800144 <DS1307+0x16>
     4da:	00 91 3f 01 	lds	r16, 0x013F	; 0x80013f <DS1307+0x11>
     4de:	27 e0       	ldi	r18, 0x07	; 7
     4e0:	70 c0       	rjmp	.+224    	; 0x5c2 <__LOCK_REGION_LENGTH__+0x1c2>
     4e2:	99 23       	and	r25, r25
     4e4:	09 f4       	brne	.+2      	; 0x4e8 <__LOCK_REGION_LENGTH__+0xe8>
     4e6:	10 c2       	rjmp	.+1056   	; 0x908 <__stack+0x9>
     4e8:	10 92 3e 01 	sts	0x013E, r1	; 0x80013e <DS1307+0x10>
     4ec:	90 91 3a 01 	lds	r25, 0x013A	; 0x80013a <DS1307+0xc>
     4f0:	80 91 45 01 	lds	r24, 0x0145	; 0x800145 <DS1307+0x17>
     4f4:	91 11       	cpse	r25, r1
     4f6:	10 c0       	rjmp	.+32     	; 0x518 <__LOCK_REGION_LENGTH__+0x118>
     4f8:	98 2f       	mov	r25, r24
     4fa:	99 1f       	adc	r25, r25
     4fc:	99 27       	eor	r25, r25
     4fe:	99 1f       	adc	r25, r25
     500:	90 93 34 01 	sts	0x0134, r25	; 0x800134 <DS1307+0x6>
     504:	20 91 47 01 	lds	r18, 0x0147	; 0x800147 <DS1307+0x19>
     508:	91 e0       	ldi	r25, 0x01	; 1
     50a:	26 ff       	sbrs	r18, 6
     50c:	90 e0       	ldi	r25, 0x00	; 0
     50e:	90 93 35 01 	sts	0x0135, r25	; 0x800135 <DS1307+0x7>
     512:	91 e0       	ldi	r25, 0x01	; 1
     514:	90 93 3a 01 	sts	0x013A, r25	; 0x80013a <DS1307+0xc>
     518:	8f 77       	andi	r24, 0x7F	; 127
     51a:	0e 94 67 01 	call	0x2ce	; 0x2ce <BCDToDecimal>
     51e:	80 93 2e 01 	sts	0x012E, r24	; 0x80012e <DS1307>
     522:	80 91 46 01 	lds	r24, 0x0146	; 0x800146 <DS1307+0x18>
     526:	8f 77       	andi	r24, 0x7F	; 127
     528:	0e 94 67 01 	call	0x2ce	; 0x2ce <BCDToDecimal>
     52c:	80 93 2f 01 	sts	0x012F, r24	; 0x80012f <DS1307+0x1>
     530:	90 91 35 01 	lds	r25, 0x0135	; 0x800135 <DS1307+0x7>
     534:	80 91 47 01 	lds	r24, 0x0147	; 0x800147 <DS1307+0x19>
     538:	99 23       	and	r25, r25
     53a:	59 f0       	breq	.+22     	; 0x552 <__LOCK_REGION_LENGTH__+0x152>
     53c:	8f 71       	andi	r24, 0x1F	; 31
     53e:	0e 94 67 01 	call	0x2ce	; 0x2ce <BCDToDecimal>
     542:	80 93 30 01 	sts	0x0130, r24	; 0x800130 <DS1307+0x2>
     546:	80 91 47 01 	lds	r24, 0x0147	; 0x800147 <DS1307+0x19>
     54a:	80 72       	andi	r24, 0x20	; 32
     54c:	80 93 3d 01 	sts	0x013D, r24	; 0x80013d <DS1307+0xf>
     550:	05 c0       	rjmp	.+10     	; 0x55c <__LOCK_REGION_LENGTH__+0x15c>
     552:	8f 73       	andi	r24, 0x3F	; 63
     554:	0e 94 67 01 	call	0x2ce	; 0x2ce <BCDToDecimal>
     558:	80 93 30 01 	sts	0x0130, r24	; 0x800130 <DS1307+0x2>
     55c:	80 91 49 01 	lds	r24, 0x0149	; 0x800149 <DS1307+0x1b>
     560:	8f 73       	andi	r24, 0x3F	; 63
     562:	0e 94 67 01 	call	0x2ce	; 0x2ce <BCDToDecimal>
     566:	80 93 31 01 	sts	0x0131, r24	; 0x800131 <DS1307+0x3>
     56a:	80 91 4a 01 	lds	r24, 0x014A	; 0x80014a <DS1307+0x1c>
     56e:	8f 71       	andi	r24, 0x1F	; 31
     570:	0e 94 67 01 	call	0x2ce	; 0x2ce <BCDToDecimal>
     574:	80 93 32 01 	sts	0x0132, r24	; 0x800132 <DS1307+0x4>
     578:	80 91 4b 01 	lds	r24, 0x014B	; 0x80014b <DS1307+0x1d>
     57c:	0e 94 67 01 	call	0x2ce	; 0x2ce <BCDToDecimal>
     580:	80 93 33 01 	sts	0x0133, r24	; 0x800133 <DS1307+0x5>
     584:	a0 91 42 01 	lds	r26, 0x0142	; 0x800142 <DS1307+0x14>
     588:	b0 91 43 01 	lds	r27, 0x0143	; 0x800143 <DS1307+0x15>
     58c:	10 97       	sbiw	r26, 0x00	; 0
     58e:	09 f4       	brne	.+2      	; 0x592 <__LOCK_REGION_LENGTH__+0x192>
     590:	5f c1       	rjmp	.+702    	; 0x850 <__LOCK_REGION_LENGTH__+0x450>
     592:	86 e0       	ldi	r24, 0x06	; 6
     594:	ee e2       	ldi	r30, 0x2E	; 46
     596:	f1 e0       	ldi	r31, 0x01	; 1
     598:	01 90       	ld	r0, Z+
     59a:	0d 92       	st	X+, r0
     59c:	8a 95       	dec	r24
     59e:	e1 f7       	brne	.-8      	; 0x598 <__LOCK_REGION_LENGTH__+0x198>
     5a0:	57 c1       	rjmp	.+686    	; 0x850 <__LOCK_REGION_LENGTH__+0x450>
     5a2:	80 91 3f 01 	lds	r24, 0x013F	; 0x80013f <DS1307+0x11>
     5a6:	0e 94 5f 07 	call	0xebe	; 0xebe <I2C_Ready>
     5aa:	90 91 3e 01 	lds	r25, 0x013E	; 0x80013e <DS1307+0x10>
     5ae:	88 23       	and	r24, r24
     5b0:	81 f0       	breq	.+32     	; 0x5d2 <__LOCK_REGION_LENGTH__+0x1d2>
     5b2:	91 11       	cpse	r25, r1
     5b4:	0e c0       	rjmp	.+28     	; 0x5d2 <__LOCK_REGION_LENGTH__+0x1d2>
     5b6:	87 e0       	ldi	r24, 0x07	; 7
     5b8:	80 93 44 01 	sts	0x0144, r24	; 0x800144 <DS1307+0x16>
     5bc:	00 91 3f 01 	lds	r16, 0x013F	; 0x80013f <DS1307+0x11>
     5c0:	21 e0       	ldi	r18, 0x01	; 1
     5c2:	41 e0       	ldi	r20, 0x01	; 1
     5c4:	65 e4       	ldi	r22, 0x45	; 69
     5c6:	71 e0       	ldi	r23, 0x01	; 1
     5c8:	84 e4       	ldi	r24, 0x44	; 68
     5ca:	91 e0       	ldi	r25, 0x01	; 1
     5cc:	0e 94 87 07 	call	0xf0e	; 0xf0e <I2C_Send_STr>
     5d0:	72 c1       	rjmp	.+740    	; 0x8b6 <__LOCK_REGION_LENGTH__+0x4b6>
     5d2:	99 23       	and	r25, r25
     5d4:	09 f4       	brne	.+2      	; 0x5d8 <__LOCK_REGION_LENGTH__+0x1d8>
     5d6:	98 c1       	rjmp	.+816    	; 0x908 <__stack+0x9>
     5d8:	10 92 3e 01 	sts	0x013E, r1	; 0x80013e <DS1307+0x10>
     5dc:	80 91 45 01 	lds	r24, 0x0145	; 0x800145 <DS1307+0x17>
     5e0:	98 2f       	mov	r25, r24
     5e2:	99 1f       	adc	r25, r25
     5e4:	99 27       	eor	r25, r25
     5e6:	99 1f       	adc	r25, r25
     5e8:	90 93 39 01 	sts	0x0139, r25	; 0x800139 <DS1307+0xb>
     5ec:	91 e0       	ldi	r25, 0x01	; 1
     5ee:	84 ff       	sbrs	r24, 4
     5f0:	90 e0       	ldi	r25, 0x00	; 0
     5f2:	90 93 38 01 	sts	0x0138, r25	; 0x800138 <DS1307+0xa>
     5f6:	91 e0       	ldi	r25, 0x01	; 1
     5f8:	81 ff       	sbrs	r24, 1
     5fa:	90 e0       	ldi	r25, 0x00	; 0
     5fc:	90 93 37 01 	sts	0x0137, r25	; 0x800137 <DS1307+0x9>
     600:	91 e0       	ldi	r25, 0x01	; 1
     602:	80 ff       	sbrs	r24, 0
     604:	90 e0       	ldi	r25, 0x00	; 0
     606:	90 93 36 01 	sts	0x0136, r25	; 0x800136 <DS1307+0x8>
     60a:	80 91 3a 01 	lds	r24, 0x013A	; 0x80013a <DS1307+0xc>
     60e:	81 11       	cpse	r24, r1
     610:	1f c1       	rjmp	.+574    	; 0x850 <__LOCK_REGION_LENGTH__+0x450>
     612:	84 e0       	ldi	r24, 0x04	; 4
     614:	80 93 3b 01 	sts	0x013B, r24	; 0x80013b <DS1307+0xd>
     618:	80 93 41 01 	sts	0x0141, r24	; 0x800141 <DS1307+0x13>
     61c:	75 c1       	rjmp	.+746    	; 0x908 <__stack+0x9>
     61e:	80 91 3f 01 	lds	r24, 0x013F	; 0x80013f <DS1307+0x11>
     622:	0e 94 5f 07 	call	0xebe	; 0xebe <I2C_Ready>
     626:	90 91 3e 01 	lds	r25, 0x013E	; 0x80013e <DS1307+0x10>
     62a:	88 23       	and	r24, r24
     62c:	09 f4       	brne	.+2      	; 0x630 <__LOCK_REGION_LENGTH__+0x230>
     62e:	4c c0       	rjmp	.+152    	; 0x6c8 <__LOCK_REGION_LENGTH__+0x2c8>
     630:	91 11       	cpse	r25, r1
     632:	4a c0       	rjmp	.+148    	; 0x6c8 <__LOCK_REGION_LENGTH__+0x2c8>
     634:	88 e0       	ldi	r24, 0x08	; 8
     636:	e4 e4       	ldi	r30, 0x44	; 68
     638:	f1 e0       	ldi	r31, 0x01	; 1
     63a:	df 01       	movw	r26, r30
     63c:	1d 92       	st	X+, r1
     63e:	8a 95       	dec	r24
     640:	e9 f7       	brne	.-6      	; 0x63c <__LOCK_REGION_LENGTH__+0x23c>
     642:	80 91 2e 01 	lds	r24, 0x012E	; 0x80012e <DS1307>
     646:	0e 94 79 01 	call	0x2f2	; 0x2f2 <DecimalToBCD>
     64a:	20 91 34 01 	lds	r18, 0x0134	; 0x800134 <DS1307+0x6>
     64e:	b0 e8       	ldi	r27, 0x80	; 128
     650:	2b 9f       	mul	r18, r27
     652:	90 01       	movw	r18, r0
     654:	11 24       	eor	r1, r1
     656:	82 2b       	or	r24, r18
     658:	80 93 45 01 	sts	0x0145, r24	; 0x800145 <DS1307+0x17>
     65c:	80 91 2f 01 	lds	r24, 0x012F	; 0x80012f <DS1307+0x1>
     660:	0e 94 79 01 	call	0x2f2	; 0x2f2 <DecimalToBCD>
     664:	8f 77       	andi	r24, 0x7F	; 127
     666:	80 93 46 01 	sts	0x0146, r24	; 0x800146 <DS1307+0x18>
     66a:	80 91 35 01 	lds	r24, 0x0135	; 0x800135 <DS1307+0x7>
     66e:	88 23       	and	r24, r24
     670:	91 f0       	breq	.+36     	; 0x696 <__LOCK_REGION_LENGTH__+0x296>
     672:	80 91 30 01 	lds	r24, 0x0130	; 0x800130 <DS1307+0x2>
     676:	0e 94 79 01 	call	0x2f2	; 0x2f2 <DecimalToBCD>
     67a:	20 91 35 01 	lds	r18, 0x0135	; 0x800135 <DS1307+0x7>
     67e:	30 e4       	ldi	r19, 0x40	; 64
     680:	23 9f       	mul	r18, r19
     682:	a0 01       	movw	r20, r0
     684:	11 24       	eor	r1, r1
     686:	90 91 3d 01 	lds	r25, 0x013D	; 0x80013d <DS1307+0xf>
     68a:	60 e2       	ldi	r22, 0x20	; 32
     68c:	96 9f       	mul	r25, r22
     68e:	90 01       	movw	r18, r0
     690:	11 24       	eor	r1, r1
     692:	24 2b       	or	r18, r20
     694:	0a c0       	rjmp	.+20     	; 0x6aa <__LOCK_REGION_LENGTH__+0x2aa>
     696:	80 91 30 01 	lds	r24, 0x0130	; 0x800130 <DS1307+0x2>
     69a:	0e 94 79 01 	call	0x2f2	; 0x2f2 <DecimalToBCD>
     69e:	20 91 35 01 	lds	r18, 0x0135	; 0x800135 <DS1307+0x7>
     6a2:	90 e4       	ldi	r25, 0x40	; 64
     6a4:	29 9f       	mul	r18, r25
     6a6:	90 01       	movw	r18, r0
     6a8:	11 24       	eor	r1, r1
     6aa:	82 2b       	or	r24, r18
     6ac:	80 93 47 01 	sts	0x0147, r24	; 0x800147 <DS1307+0x19>
     6b0:	40 91 3f 01 	lds	r20, 0x013F	; 0x80013f <DS1307+0x11>
     6b4:	64 e0       	ldi	r22, 0x04	; 4
     6b6:	fb c0       	rjmp	.+502    	; 0x8ae <__LOCK_REGION_LENGTH__+0x4ae>
     6b8:	80 91 3f 01 	lds	r24, 0x013F	; 0x80013f <DS1307+0x11>
     6bc:	0e 94 5f 07 	call	0xebe	; 0xebe <I2C_Ready>
     6c0:	90 91 3e 01 	lds	r25, 0x013E	; 0x80013e <DS1307+0x10>
     6c4:	81 11       	cpse	r24, r1
     6c6:	06 c0       	rjmp	.+12     	; 0x6d4 <__LOCK_REGION_LENGTH__+0x2d4>
     6c8:	99 23       	and	r25, r25
     6ca:	09 f4       	brne	.+2      	; 0x6ce <__LOCK_REGION_LENGTH__+0x2ce>
     6cc:	1d c1       	rjmp	.+570    	; 0x908 <__stack+0x9>
     6ce:	10 92 3e 01 	sts	0x013E, r1	; 0x80013e <DS1307+0x10>
     6d2:	be c0       	rjmp	.+380    	; 0x850 <__LOCK_REGION_LENGTH__+0x450>
     6d4:	91 11       	cpse	r25, r1
     6d6:	f8 cf       	rjmp	.-16     	; 0x6c8 <__LOCK_REGION_LENGTH__+0x2c8>
     6d8:	88 e0       	ldi	r24, 0x08	; 8
     6da:	e4 e4       	ldi	r30, 0x44	; 68
     6dc:	f1 e0       	ldi	r31, 0x01	; 1
     6de:	df 01       	movw	r26, r30
     6e0:	1d 92       	st	X+, r1
     6e2:	8a 95       	dec	r24
     6e4:	e9 f7       	brne	.-6      	; 0x6e0 <__LOCK_REGION_LENGTH__+0x2e0>
     6e6:	84 e0       	ldi	r24, 0x04	; 4
     6e8:	80 93 44 01 	sts	0x0144, r24	; 0x800144 <DS1307+0x16>
     6ec:	80 91 31 01 	lds	r24, 0x0131	; 0x800131 <DS1307+0x3>
     6f0:	0e 94 79 01 	call	0x2f2	; 0x2f2 <DecimalToBCD>
     6f4:	8f 73       	andi	r24, 0x3F	; 63
     6f6:	80 93 45 01 	sts	0x0145, r24	; 0x800145 <DS1307+0x17>
     6fa:	80 91 32 01 	lds	r24, 0x0132	; 0x800132 <DS1307+0x4>
     6fe:	0e 94 79 01 	call	0x2f2	; 0x2f2 <DecimalToBCD>
     702:	8f 71       	andi	r24, 0x1F	; 31
     704:	80 93 46 01 	sts	0x0146, r24	; 0x800146 <DS1307+0x18>
     708:	80 91 33 01 	lds	r24, 0x0133	; 0x800133 <DS1307+0x5>
     70c:	0e 94 79 01 	call	0x2f2	; 0x2f2 <DecimalToBCD>
     710:	cd cf       	rjmp	.-102    	; 0x6ac <__LOCK_REGION_LENGTH__+0x2ac>
     712:	80 91 3f 01 	lds	r24, 0x013F	; 0x80013f <DS1307+0x11>
     716:	0e 94 5f 07 	call	0xebe	; 0xebe <I2C_Ready>
     71a:	90 91 3e 01 	lds	r25, 0x013E	; 0x80013e <DS1307+0x10>
     71e:	88 23       	and	r24, r24
     720:	99 f2       	breq	.-90     	; 0x6c8 <__LOCK_REGION_LENGTH__+0x2c8>
     722:	91 11       	cpse	r25, r1
     724:	d1 cf       	rjmp	.-94     	; 0x6c8 <__LOCK_REGION_LENGTH__+0x2c8>
     726:	88 e0       	ldi	r24, 0x08	; 8
     728:	e4 e4       	ldi	r30, 0x44	; 68
     72a:	f1 e0       	ldi	r31, 0x01	; 1
     72c:	df 01       	movw	r26, r30
     72e:	1d 92       	st	X+, r1
     730:	8a 95       	dec	r24
     732:	e9 f7       	brne	.-6      	; 0x72e <__LOCK_REGION_LENGTH__+0x32e>
     734:	80 91 2e 01 	lds	r24, 0x012E	; 0x80012e <DS1307>
     738:	0e 94 79 01 	call	0x2f2	; 0x2f2 <DecimalToBCD>
     73c:	20 91 34 01 	lds	r18, 0x0134	; 0x800134 <DS1307+0x6>
     740:	b0 e8       	ldi	r27, 0x80	; 128
     742:	2b 9f       	mul	r18, r27
     744:	90 01       	movw	r18, r0
     746:	11 24       	eor	r1, r1
     748:	82 2b       	or	r24, r18
     74a:	80 93 45 01 	sts	0x0145, r24	; 0x800145 <DS1307+0x17>
     74e:	80 91 2f 01 	lds	r24, 0x012F	; 0x80012f <DS1307+0x1>
     752:	0e 94 79 01 	call	0x2f2	; 0x2f2 <DecimalToBCD>
     756:	8f 77       	andi	r24, 0x7F	; 127
     758:	80 93 46 01 	sts	0x0146, r24	; 0x800146 <DS1307+0x18>
     75c:	80 91 35 01 	lds	r24, 0x0135	; 0x800135 <DS1307+0x7>
     760:	88 23       	and	r24, r24
     762:	91 f0       	breq	.+36     	; 0x788 <__LOCK_REGION_LENGTH__+0x388>
     764:	80 91 30 01 	lds	r24, 0x0130	; 0x800130 <DS1307+0x2>
     768:	0e 94 79 01 	call	0x2f2	; 0x2f2 <DecimalToBCD>
     76c:	20 91 35 01 	lds	r18, 0x0135	; 0x800135 <DS1307+0x7>
     770:	30 e4       	ldi	r19, 0x40	; 64
     772:	23 9f       	mul	r18, r19
     774:	a0 01       	movw	r20, r0
     776:	11 24       	eor	r1, r1
     778:	90 91 3d 01 	lds	r25, 0x013D	; 0x80013d <DS1307+0xf>
     77c:	60 e2       	ldi	r22, 0x20	; 32
     77e:	96 9f       	mul	r25, r22
     780:	90 01       	movw	r18, r0
     782:	11 24       	eor	r1, r1
     784:	24 2b       	or	r18, r20
     786:	0a c0       	rjmp	.+20     	; 0x79c <__LOCK_REGION_LENGTH__+0x39c>
     788:	80 91 30 01 	lds	r24, 0x0130	; 0x800130 <DS1307+0x2>
     78c:	0e 94 79 01 	call	0x2f2	; 0x2f2 <DecimalToBCD>
     790:	20 91 35 01 	lds	r18, 0x0135	; 0x800135 <DS1307+0x7>
     794:	90 e4       	ldi	r25, 0x40	; 64
     796:	29 9f       	mul	r18, r25
     798:	90 01       	movw	r18, r0
     79a:	11 24       	eor	r1, r1
     79c:	82 2b       	or	r24, r18
     79e:	80 93 47 01 	sts	0x0147, r24	; 0x800147 <DS1307+0x19>
     7a2:	80 91 31 01 	lds	r24, 0x0131	; 0x800131 <DS1307+0x3>
     7a6:	0e 94 79 01 	call	0x2f2	; 0x2f2 <DecimalToBCD>
     7aa:	8f 73       	andi	r24, 0x3F	; 63
     7ac:	80 93 49 01 	sts	0x0149, r24	; 0x800149 <DS1307+0x1b>
     7b0:	80 91 32 01 	lds	r24, 0x0132	; 0x800132 <DS1307+0x4>
     7b4:	0e 94 79 01 	call	0x2f2	; 0x2f2 <DecimalToBCD>
     7b8:	8f 71       	andi	r24, 0x1F	; 31
     7ba:	80 93 4a 01 	sts	0x014A, r24	; 0x80014a <DS1307+0x1c>
     7be:	80 91 33 01 	lds	r24, 0x0133	; 0x800133 <DS1307+0x5>
     7c2:	0e 94 79 01 	call	0x2f2	; 0x2f2 <DecimalToBCD>
     7c6:	80 93 4b 01 	sts	0x014B, r24	; 0x80014b <DS1307+0x1d>
     7ca:	40 91 3f 01 	lds	r20, 0x013F	; 0x80013f <DS1307+0x11>
     7ce:	68 e0       	ldi	r22, 0x08	; 8
     7d0:	6e c0       	rjmp	.+220    	; 0x8ae <__LOCK_REGION_LENGTH__+0x4ae>
     7d2:	80 91 3f 01 	lds	r24, 0x013F	; 0x80013f <DS1307+0x11>
     7d6:	0e 94 5f 07 	call	0xebe	; 0xebe <I2C_Ready>
     7da:	90 91 3e 01 	lds	r25, 0x013E	; 0x80013e <DS1307+0x10>
     7de:	88 23       	and	r24, r24
     7e0:	81 f1       	breq	.+96     	; 0x842 <__LOCK_REGION_LENGTH__+0x442>
     7e2:	91 11       	cpse	r25, r1
     7e4:	2e c0       	rjmp	.+92     	; 0x842 <__LOCK_REGION_LENGTH__+0x442>
     7e6:	88 e0       	ldi	r24, 0x08	; 8
     7e8:	e4 e4       	ldi	r30, 0x44	; 68
     7ea:	f1 e0       	ldi	r31, 0x01	; 1
     7ec:	df 01       	movw	r26, r30
     7ee:	1d 92       	st	X+, r1
     7f0:	8a 95       	dec	r24
     7f2:	e9 f7       	brne	.-6      	; 0x7ee <__LOCK_REGION_LENGTH__+0x3ee>
     7f4:	87 e0       	ldi	r24, 0x07	; 7
     7f6:	80 93 44 01 	sts	0x0144, r24	; 0x800144 <DS1307+0x16>
     7fa:	80 91 39 01 	lds	r24, 0x0139	; 0x800139 <DS1307+0xb>
     7fe:	b0 e8       	ldi	r27, 0x80	; 128
     800:	8b 9f       	mul	r24, r27
     802:	a0 01       	movw	r20, r0
     804:	11 24       	eor	r1, r1
     806:	20 91 38 01 	lds	r18, 0x0138	; 0x800138 <DS1307+0xa>
     80a:	30 e1       	ldi	r19, 0x10	; 16
     80c:	23 9f       	mul	r18, r19
     80e:	c0 01       	movw	r24, r0
     810:	11 24       	eor	r1, r1
     812:	84 2b       	or	r24, r20
     814:	20 91 36 01 	lds	r18, 0x0136	; 0x800136 <DS1307+0x8>
     818:	98 2f       	mov	r25, r24
     81a:	92 2b       	or	r25, r18
     81c:	80 91 37 01 	lds	r24, 0x0137	; 0x800137 <DS1307+0x9>
     820:	88 0f       	add	r24, r24
     822:	89 2b       	or	r24, r25
     824:	80 93 45 01 	sts	0x0145, r24	; 0x800145 <DS1307+0x17>
     828:	40 91 3f 01 	lds	r20, 0x013F	; 0x80013f <DS1307+0x11>
     82c:	62 e0       	ldi	r22, 0x02	; 2
     82e:	cf 01       	movw	r24, r30
     830:	40 c0       	rjmp	.+128    	; 0x8b2 <__LOCK_REGION_LENGTH__+0x4b2>
     832:	80 91 3f 01 	lds	r24, 0x013F	; 0x80013f <DS1307+0x11>
     836:	0e 94 5f 07 	call	0xebe	; 0xebe <I2C_Ready>
     83a:	90 91 3e 01 	lds	r25, 0x013E	; 0x80013e <DS1307+0x10>
     83e:	81 11       	cpse	r24, r1
     840:	0c c0       	rjmp	.+24     	; 0x85a <__LOCK_REGION_LENGTH__+0x45a>
     842:	99 23       	and	r25, r25
     844:	09 f4       	brne	.+2      	; 0x848 <__LOCK_REGION_LENGTH__+0x448>
     846:	60 c0       	rjmp	.+192    	; 0x908 <__stack+0x9>
     848:	10 92 3e 01 	sts	0x013E, r1	; 0x80013e <DS1307+0x10>
     84c:	10 92 3a 01 	sts	0x013A, r1	; 0x80013a <DS1307+0xc>
     850:	10 92 3b 01 	sts	0x013B, r1	; 0x80013b <DS1307+0xd>
     854:	10 92 41 01 	sts	0x0141, r1	; 0x800141 <DS1307+0x13>
     858:	57 c0       	rjmp	.+174    	; 0x908 <__stack+0x9>
     85a:	91 11       	cpse	r25, r1
     85c:	f2 cf       	rjmp	.-28     	; 0x842 <__LOCK_REGION_LENGTH__+0x442>
     85e:	88 e0       	ldi	r24, 0x08	; 8
     860:	e4 e4       	ldi	r30, 0x44	; 68
     862:	f1 e0       	ldi	r31, 0x01	; 1
     864:	df 01       	movw	r26, r30
     866:	1d 92       	st	X+, r1
     868:	8a 95       	dec	r24
     86a:	e9 f7       	brne	.-6      	; 0x866 <__LOCK_REGION_LENGTH__+0x466>
     86c:	80 91 2e 01 	lds	r24, 0x012E	; 0x80012e <DS1307>
     870:	0e 94 79 01 	call	0x2f2	; 0x2f2 <DecimalToBCD>
     874:	8f 77       	andi	r24, 0x7F	; 127
     876:	16 c0       	rjmp	.+44     	; 0x8a4 <__LOCK_REGION_LENGTH__+0x4a4>
     878:	80 91 3f 01 	lds	r24, 0x013F	; 0x80013f <DS1307+0x11>
     87c:	0e 94 5f 07 	call	0xebe	; 0xebe <I2C_Ready>
     880:	90 91 3e 01 	lds	r25, 0x013E	; 0x80013e <DS1307+0x10>
     884:	88 23       	and	r24, r24
     886:	e9 f2       	breq	.-70     	; 0x842 <__LOCK_REGION_LENGTH__+0x442>
     888:	91 11       	cpse	r25, r1
     88a:	db cf       	rjmp	.-74     	; 0x842 <__LOCK_REGION_LENGTH__+0x442>
     88c:	88 e0       	ldi	r24, 0x08	; 8
     88e:	e4 e4       	ldi	r30, 0x44	; 68
     890:	f1 e0       	ldi	r31, 0x01	; 1
     892:	df 01       	movw	r26, r30
     894:	1d 92       	st	X+, r1
     896:	8a 95       	dec	r24
     898:	e9 f7       	brne	.-6      	; 0x894 <__LOCK_REGION_LENGTH__+0x494>
     89a:	80 91 2e 01 	lds	r24, 0x012E	; 0x80012e <DS1307>
     89e:	0e 94 79 01 	call	0x2f2	; 0x2f2 <DecimalToBCD>
     8a2:	80 68       	ori	r24, 0x80	; 128
     8a4:	80 93 45 01 	sts	0x0145, r24	; 0x800145 <DS1307+0x17>
     8a8:	40 91 3f 01 	lds	r20, 0x013F	; 0x80013f <DS1307+0x11>
     8ac:	62 e0       	ldi	r22, 0x02	; 2
     8ae:	84 e4       	ldi	r24, 0x44	; 68
     8b0:	91 e0       	ldi	r25, 0x01	; 1
     8b2:	0e 94 70 07 	call	0xee0	; 0xee0 <I2C_Send_ST>
     8b6:	80 91 3b 01 	lds	r24, 0x013B	; 0x80013b <DS1307+0xd>
     8ba:	80 93 40 01 	sts	0x0140, r24	; 0x800140 <DS1307+0x12>
     8be:	83 e6       	ldi	r24, 0x63	; 99
     8c0:	80 93 3b 01 	sts	0x013B, r24	; 0x80013b <DS1307+0xd>
     8c4:	21 c0       	rjmp	.+66     	; 0x908 <__stack+0x9>
     8c6:	80 91 3f 01 	lds	r24, 0x013F	; 0x80013f <DS1307+0x11>
     8ca:	0e 94 4d 07 	call	0xe9a	; 0xe9a <I2C_ID_State>
     8ce:	85 36       	cpi	r24, 0x65	; 101
     8d0:	61 f4       	brne	.+24     	; 0x8ea <__LOCK_REGION_LENGTH__+0x4ea>
     8d2:	10 92 3b 01 	sts	0x013B, r1	; 0x80013b <DS1307+0xd>
     8d6:	10 92 41 01 	sts	0x0141, r1	; 0x800141 <DS1307+0x13>
     8da:	80 91 3f 01 	lds	r24, 0x013F	; 0x80013f <DS1307+0x11>
     8de:	0e 94 56 07 	call	0xeac	; 0xeac <I2C_ID_Ack_Error>
     8e2:	8a e0       	ldi	r24, 0x0A	; 10
     8e4:	80 93 3c 01 	sts	0x013C, r24	; 0x80013c <DS1307+0xe>
     8e8:	0f c0       	rjmp	.+30     	; 0x908 <__stack+0x9>
     8ea:	80 91 3f 01 	lds	r24, 0x013F	; 0x80013f <DS1307+0x11>
     8ee:	0e 94 5f 07 	call	0xebe	; 0xebe <I2C_Ready>
     8f2:	88 23       	and	r24, r24
     8f4:	49 f0       	breq	.+18     	; 0x908 <__stack+0x9>
     8f6:	80 91 40 01 	lds	r24, 0x0140	; 0x800140 <DS1307+0x12>
     8fa:	80 93 3b 01 	sts	0x013B, r24	; 0x80013b <DS1307+0xd>
     8fe:	80 91 3e 01 	lds	r24, 0x013E	; 0x80013e <DS1307+0x10>
     902:	8f 5f       	subi	r24, 0xFF	; 255
     904:	80 93 3e 01 	sts	0x013E, r24	; 0x80013e <DS1307+0x10>
     908:	80 91 3c 01 	lds	r24, 0x013C	; 0x80013c <DS1307+0xe>
     90c:	88 23       	and	r24, r24
     90e:	29 f0       	breq	.+10     	; 0x91a <__stack+0x1b>
     910:	0e 94 75 13 	call	0x26ea	; 0x26ea <Timer_Pulse_1s>
     914:	91 e0       	ldi	r25, 0x01	; 1
     916:	81 11       	cpse	r24, r1
     918:	01 c0       	rjmp	.+2      	; 0x91c <__stack+0x1d>
     91a:	90 e0       	ldi	r25, 0x00	; 0
     91c:	80 91 3c 01 	lds	r24, 0x013C	; 0x80013c <DS1307+0xe>
     920:	89 1b       	sub	r24, r25
     922:	80 93 3c 01 	sts	0x013C, r24	; 0x80013c <DS1307+0xe>
     926:	0f 91       	pop	r16
     928:	08 95       	ret

0000092a <DS1307_Init>:
     92a:	88 e0       	ldi	r24, 0x08	; 8
     92c:	e4 e4       	ldi	r30, 0x44	; 68
     92e:	f1 e0       	ldi	r31, 0x01	; 1
     930:	df 01       	movw	r26, r30
     932:	1d 92       	st	X+, r1
     934:	8a 95       	dec	r24
     936:	e9 f7       	brne	.-6      	; 0x932 <DS1307_Init+0x8>
     938:	10 92 3e 01 	sts	0x013E, r1	; 0x80013e <DS1307+0x10>
     93c:	10 92 3a 01 	sts	0x013A, r1	; 0x80013a <DS1307+0xc>
     940:	80 91 3f 01 	lds	r24, 0x013F	; 0x80013f <DS1307+0x11>
     944:	81 11       	cpse	r24, r1
     946:	0e 94 b8 07 	call	0xf70	; 0xf70 <I2C_Free_Ident>
     94a:	10 92 3f 01 	sts	0x013F, r1	; 0x80013f <DS1307+0x11>
     94e:	10 92 3c 01 	sts	0x013C, r1	; 0x80013c <DS1307+0xe>
     952:	81 e0       	ldi	r24, 0x01	; 1
     954:	80 93 41 01 	sts	0x0141, r24	; 0x800141 <DS1307+0x13>
     958:	08 95       	ret

0000095a <DS1307_Ready>:
     95a:	80 91 3b 01 	lds	r24, 0x013B	; 0x80013b <DS1307+0xd>
     95e:	81 11       	cpse	r24, r1
     960:	07 c0       	rjmp	.+14     	; 0x970 <DS1307_Ready+0x16>
     962:	80 91 3a 01 	lds	r24, 0x013A	; 0x80013a <DS1307+0xc>
     966:	81 30       	cpi	r24, 0x01	; 1
     968:	19 f4       	brne	.+6      	; 0x970 <DS1307_Ready+0x16>
     96a:	90 91 41 01 	lds	r25, 0x0141	; 0x800141 <DS1307+0x13>
     96e:	91 11       	cpse	r25, r1
     970:	80 e0       	ldi	r24, 0x00	; 0
     972:	08 95       	ret

00000974 <DS1307_Get_DateTime>:
     974:	20 91 41 01 	lds	r18, 0x0141	; 0x800141 <DS1307+0x13>
     978:	21 11       	cpse	r18, r1
     97a:	07 c0       	rjmp	.+14     	; 0x98a <DS1307_Get_DateTime+0x16>
     97c:	90 93 43 01 	sts	0x0143, r25	; 0x800143 <DS1307+0x15>
     980:	80 93 42 01 	sts	0x0142, r24	; 0x800142 <DS1307+0x14>
     984:	84 e0       	ldi	r24, 0x04	; 4
     986:	80 93 41 01 	sts	0x0141, r24	; 0x800141 <DS1307+0x13>
     98a:	08 95       	ret

0000098c <DS1307_Get_TWLF>:
     98c:	80 91 35 01 	lds	r24, 0x0135	; 0x800135 <DS1307+0x7>
     990:	08 95       	ret

00000992 <DS1307_Get_PM>:
     992:	80 91 3d 01 	lds	r24, 0x013D	; 0x80013d <DS1307+0xf>
     996:	08 95       	ret

00000998 <DS1307_Set_DateTime>:
     998:	fc 01       	movw	r30, r24
     99a:	80 91 41 01 	lds	r24, 0x0141	; 0x800141 <DS1307+0x13>
     99e:	81 11       	cpse	r24, r1
     9a0:	0e c0       	rjmp	.+28     	; 0x9be <DS1307_Set_DateTime+0x26>
     9a2:	f0 93 43 01 	sts	0x0143, r31	; 0x800143 <DS1307+0x15>
     9a6:	e0 93 42 01 	sts	0x0142, r30	; 0x800142 <DS1307+0x14>
     9aa:	96 e0       	ldi	r25, 0x06	; 6
     9ac:	ae e2       	ldi	r26, 0x2E	; 46
     9ae:	b1 e0       	ldi	r27, 0x01	; 1
     9b0:	01 90       	ld	r0, Z+
     9b2:	0d 92       	st	X+, r0
     9b4:	9a 95       	dec	r25
     9b6:	e1 f7       	brne	.-8      	; 0x9b0 <DS1307_Set_DateTime+0x18>
     9b8:	8d e0       	ldi	r24, 0x0D	; 13
     9ba:	80 93 41 01 	sts	0x0141, r24	; 0x800141 <DS1307+0x13>
     9be:	08 95       	ret

000009c0 <DS1307_Set_TWLF>:
     9c0:	90 91 41 01 	lds	r25, 0x0141	; 0x800141 <DS1307+0x13>
     9c4:	91 11       	cpse	r25, r1
     9c6:	21 c0       	rjmp	.+66     	; 0xa0a <DS1307_Set_TWLF+0x4a>
     9c8:	91 e0       	ldi	r25, 0x01	; 1
     9ca:	81 11       	cpse	r24, r1
     9cc:	01 c0       	rjmp	.+2      	; 0x9d0 <DS1307_Set_TWLF+0x10>
     9ce:	90 e0       	ldi	r25, 0x00	; 0
     9d0:	90 93 35 01 	sts	0x0135, r25	; 0x800135 <DS1307+0x7>
     9d4:	90 91 30 01 	lds	r25, 0x0130	; 0x800130 <DS1307+0x2>
     9d8:	9d 30       	cpi	r25, 0x0D	; 13
     9da:	48 f0       	brcs	.+18     	; 0x9ee <DS1307_Set_TWLF+0x2e>
     9dc:	88 23       	and	r24, r24
     9de:	39 f0       	breq	.+14     	; 0x9ee <DS1307_Set_TWLF+0x2e>
     9e0:	9c 50       	subi	r25, 0x0C	; 12
     9e2:	90 93 30 01 	sts	0x0130, r25	; 0x800130 <DS1307+0x2>
     9e6:	81 e0       	ldi	r24, 0x01	; 1
     9e8:	80 93 3d 01 	sts	0x013D, r24	; 0x80013d <DS1307+0xf>
     9ec:	0b c0       	rjmp	.+22     	; 0xa04 <DS1307_Set_TWLF+0x44>
     9ee:	20 91 3d 01 	lds	r18, 0x013D	; 0x80013d <DS1307+0xf>
     9f2:	22 23       	and	r18, r18
     9f4:	39 f0       	breq	.+14     	; 0xa04 <DS1307_Set_TWLF+0x44>
     9f6:	81 11       	cpse	r24, r1
     9f8:	05 c0       	rjmp	.+10     	; 0xa04 <DS1307_Set_TWLF+0x44>
     9fa:	94 5f       	subi	r25, 0xF4	; 244
     9fc:	90 93 30 01 	sts	0x0130, r25	; 0x800130 <DS1307+0x2>
     a00:	10 92 3d 01 	sts	0x013D, r1	; 0x80013d <DS1307+0xf>
     a04:	8b e0       	ldi	r24, 0x0B	; 11
     a06:	80 93 41 01 	sts	0x0141, r24	; 0x800141 <DS1307+0x13>
     a0a:	08 95       	ret

00000a0c <DS1307_Set_PM>:
     a0c:	90 91 35 01 	lds	r25, 0x0135	; 0x800135 <DS1307+0x7>
     a10:	91 11       	cpse	r25, r1
     a12:	80 93 3d 01 	sts	0x013D, r24	; 0x80013d <DS1307+0xf>
     a16:	08 95       	ret

00000a18 <DS1307_Enable>:
     a18:	80 91 41 01 	lds	r24, 0x0141	; 0x800141 <DS1307+0x13>
     a1c:	81 11       	cpse	r24, r1
     a1e:	05 c0       	rjmp	.+10     	; 0xa2a <DS1307_Enable+0x12>
     a20:	10 92 34 01 	sts	0x0134, r1	; 0x800134 <DS1307+0x6>
     a24:	85 e1       	ldi	r24, 0x15	; 21
     a26:	80 93 41 01 	sts	0x0141, r24	; 0x800141 <DS1307+0x13>
     a2a:	08 95       	ret

00000a2c <DS1307_Disable>:
     a2c:	80 91 41 01 	lds	r24, 0x0141	; 0x800141 <DS1307+0x13>
     a30:	81 11       	cpse	r24, r1
     a32:	06 c0       	rjmp	.+12     	; 0xa40 <DS1307_Disable+0x14>
     a34:	81 e0       	ldi	r24, 0x01	; 1
     a36:	80 93 34 01 	sts	0x0134, r24	; 0x800134 <DS1307+0x6>
     a3a:	86 e1       	ldi	r24, 0x16	; 22
     a3c:	80 93 41 01 	sts	0x0141, r24	; 0x800141 <DS1307+0x13>
     a40:	08 95       	ret

00000a42 <DS1307_Get_Enable>:
     a42:	81 e0       	ldi	r24, 0x01	; 1
     a44:	90 91 34 01 	lds	r25, 0x0134	; 0x800134 <DS1307+0x6>
     a48:	91 11       	cpse	r25, r1
     a4a:	80 e0       	ldi	r24, 0x00	; 0
     a4c:	08 95       	ret

00000a4e <EEPROM_Loop>:
     a4e:	80 91 4c 01 	lds	r24, 0x014C	; 0x80014c <EEPROM>
     a52:	82 30       	cpi	r24, 0x02	; 2
     a54:	09 f4       	brne	.+2      	; 0xa58 <EEPROM_Loop+0xa>
     a56:	49 c0       	rjmp	.+146    	; 0xaea <EEPROM_Loop+0x9c>
     a58:	28 f4       	brcc	.+10     	; 0xa64 <EEPROM_Loop+0x16>
     a5a:	88 23       	and	r24, r24
     a5c:	51 f0       	breq	.+20     	; 0xa72 <EEPROM_Loop+0x24>
     a5e:	81 30       	cpi	r24, 0x01	; 1
     a60:	c9 f0       	breq	.+50     	; 0xa94 <EEPROM_Loop+0x46>
     a62:	72 c0       	rjmp	.+228    	; 0xb48 <EEPROM_Loop+0xfa>
     a64:	83 30       	cpi	r24, 0x03	; 3
     a66:	09 f4       	brne	.+2      	; 0xa6a <EEPROM_Loop+0x1c>
     a68:	43 c0       	rjmp	.+134    	; 0xaf0 <EEPROM_Loop+0xa2>
     a6a:	84 30       	cpi	r24, 0x04	; 4
     a6c:	09 f4       	brne	.+2      	; 0xa70 <EEPROM_Loop+0x22>
     a6e:	69 c0       	rjmp	.+210    	; 0xb42 <EEPROM_Loop+0xf4>
     a70:	6b c0       	rjmp	.+214    	; 0xb48 <EEPROM_Loop+0xfa>
     a72:	f9 99       	sbic	0x1f, 1	; 31
     a74:	6b c0       	rjmp	.+214    	; 0xb4c <EEPROM_Loop+0xfe>
     a76:	80 91 4f 01 	lds	r24, 0x014F	; 0x80014f <EEPROM+0x3>
     a7a:	90 91 50 01 	lds	r25, 0x0150	; 0x800150 <EEPROM+0x4>
     a7e:	89 2b       	or	r24, r25
     a80:	09 f4       	brne	.+2      	; 0xa84 <EEPROM_Loop+0x36>
     a82:	64 c0       	rjmp	.+200    	; 0xb4c <EEPROM_Loop+0xfe>
     a84:	80 91 51 01 	lds	r24, 0x0151	; 0x800151 <EEPROM+0x5>
     a88:	88 23       	and	r24, r24
     a8a:	11 f0       	breq	.+4      	; 0xa90 <EEPROM_Loop+0x42>
     a8c:	81 e0       	ldi	r24, 0x01	; 1
     a8e:	56 c0       	rjmp	.+172    	; 0xb3c <EEPROM_Loop+0xee>
     a90:	83 e0       	ldi	r24, 0x03	; 3
     a92:	54 c0       	rjmp	.+168    	; 0xb3c <EEPROM_Loop+0xee>
     a94:	80 91 4f 01 	lds	r24, 0x014F	; 0x80014f <EEPROM+0x3>
     a98:	90 91 50 01 	lds	r25, 0x0150	; 0x800150 <EEPROM+0x4>
     a9c:	00 97       	sbiw	r24, 0x00	; 0
     a9e:	09 f4       	brne	.+2      	; 0xaa2 <EEPROM_Loop+0x54>
     aa0:	53 c0       	rjmp	.+166    	; 0xb48 <EEPROM_Loop+0xfa>
     aa2:	01 97       	sbiw	r24, 0x01	; 1
     aa4:	90 93 50 01 	sts	0x0150, r25	; 0x800150 <EEPROM+0x4>
     aa8:	80 93 4f 01 	sts	0x014F, r24	; 0x80014f <EEPROM+0x3>
     aac:	f8 94       	cli
     aae:	80 91 4d 01 	lds	r24, 0x014D	; 0x80014d <EEPROM+0x1>
     ab2:	90 91 4e 01 	lds	r25, 0x014E	; 0x80014e <EEPROM+0x2>
     ab6:	9c 01       	movw	r18, r24
     ab8:	2f 5f       	subi	r18, 0xFF	; 255
     aba:	3f 4f       	sbci	r19, 0xFF	; 255
     abc:	30 93 4e 01 	sts	0x014E, r19	; 0x80014e <EEPROM+0x2>
     ac0:	20 93 4d 01 	sts	0x014D, r18	; 0x80014d <EEPROM+0x1>
     ac4:	92 bd       	out	0x22, r25	; 34
     ac6:	81 bd       	out	0x21, r24	; 33
     ac8:	e0 91 52 01 	lds	r30, 0x0152	; 0x800152 <EEPROM+0x6>
     acc:	f0 91 53 01 	lds	r31, 0x0153	; 0x800153 <EEPROM+0x7>
     ad0:	cf 01       	movw	r24, r30
     ad2:	01 96       	adiw	r24, 0x01	; 1
     ad4:	90 93 53 01 	sts	0x0153, r25	; 0x800153 <EEPROM+0x7>
     ad8:	80 93 52 01 	sts	0x0152, r24	; 0x800152 <EEPROM+0x6>
     adc:	80 81       	ld	r24, Z
     ade:	80 bd       	out	0x20, r24	; 32
     ae0:	fa 9a       	sbi	0x1f, 2	; 31
     ae2:	f9 9a       	sbi	0x1f, 1	; 31
     ae4:	78 94       	sei
     ae6:	82 e0       	ldi	r24, 0x02	; 2
     ae8:	29 c0       	rjmp	.+82     	; 0xb3c <EEPROM_Loop+0xee>
     aea:	f9 9b       	sbis	0x1f, 1	; 31
     aec:	cf cf       	rjmp	.-98     	; 0xa8c <EEPROM_Loop+0x3e>
     aee:	08 95       	ret
     af0:	80 91 4f 01 	lds	r24, 0x014F	; 0x80014f <EEPROM+0x3>
     af4:	90 91 50 01 	lds	r25, 0x0150	; 0x800150 <EEPROM+0x4>
     af8:	00 97       	sbiw	r24, 0x00	; 0
     afa:	31 f1       	breq	.+76     	; 0xb48 <EEPROM_Loop+0xfa>
     afc:	01 97       	sbiw	r24, 0x01	; 1
     afe:	90 93 50 01 	sts	0x0150, r25	; 0x800150 <EEPROM+0x4>
     b02:	80 93 4f 01 	sts	0x014F, r24	; 0x80014f <EEPROM+0x3>
     b06:	80 91 4d 01 	lds	r24, 0x014D	; 0x80014d <EEPROM+0x1>
     b0a:	90 91 4e 01 	lds	r25, 0x014E	; 0x80014e <EEPROM+0x2>
     b0e:	9c 01       	movw	r18, r24
     b10:	2f 5f       	subi	r18, 0xFF	; 255
     b12:	3f 4f       	sbci	r19, 0xFF	; 255
     b14:	30 93 4e 01 	sts	0x014E, r19	; 0x80014e <EEPROM+0x2>
     b18:	20 93 4d 01 	sts	0x014D, r18	; 0x80014d <EEPROM+0x1>
     b1c:	92 bd       	out	0x22, r25	; 34
     b1e:	81 bd       	out	0x21, r24	; 33
     b20:	f8 9a       	sbi	0x1f, 0	; 31
     b22:	e0 91 52 01 	lds	r30, 0x0152	; 0x800152 <EEPROM+0x6>
     b26:	f0 91 53 01 	lds	r31, 0x0153	; 0x800153 <EEPROM+0x7>
     b2a:	cf 01       	movw	r24, r30
     b2c:	01 96       	adiw	r24, 0x01	; 1
     b2e:	90 93 53 01 	sts	0x0153, r25	; 0x800153 <EEPROM+0x7>
     b32:	80 93 52 01 	sts	0x0152, r24	; 0x800152 <EEPROM+0x6>
     b36:	80 b5       	in	r24, 0x20	; 32
     b38:	80 83       	st	Z, r24
     b3a:	84 e0       	ldi	r24, 0x04	; 4
     b3c:	80 93 4c 01 	sts	0x014C, r24	; 0x80014c <EEPROM>
     b40:	08 95       	ret
     b42:	f9 9b       	sbis	0x1f, 1	; 31
     b44:	a5 cf       	rjmp	.-182    	; 0xa90 <EEPROM_Loop+0x42>
     b46:	08 95       	ret
     b48:	10 92 4c 01 	sts	0x014C, r1	; 0x80014c <EEPROM>
     b4c:	08 95       	ret

00000b4e <EEPROM_Status>:
     b4e:	80 91 4f 01 	lds	r24, 0x014F	; 0x80014f <EEPROM+0x3>
     b52:	90 91 50 01 	lds	r25, 0x0150	; 0x800150 <EEPROM+0x4>
     b56:	89 2b       	or	r24, r25
     b58:	19 f4       	brne	.+6      	; 0xb60 <EEPROM_Status+0x12>
     b5a:	80 91 4c 01 	lds	r24, 0x014C	; 0x80014c <EEPROM>
     b5e:	08 95       	ret
     b60:	83 e6       	ldi	r24, 0x63	; 99
     b62:	08 95       	ret

00000b64 <EEPROM_Write>:
     b64:	ec e4       	ldi	r30, 0x4C	; 76
     b66:	f1 e0       	ldi	r31, 0x01	; 1
     b68:	92 83       	std	Z+2, r25	; 0x02
     b6a:	81 83       	std	Z+1, r24	; 0x01
     b6c:	74 83       	std	Z+4, r23	; 0x04
     b6e:	63 83       	std	Z+3, r22	; 0x03
     b70:	57 83       	std	Z+7, r21	; 0x07
     b72:	46 83       	std	Z+6, r20	; 0x06
     b74:	85 81       	ldd	r24, Z+5	; 0x05
     b76:	8f 5f       	subi	r24, 0xFF	; 255
     b78:	85 83       	std	Z+5, r24	; 0x05
     b7a:	08 95       	ret

00000b7c <EEPROM_Read>:
     b7c:	ec e4       	ldi	r30, 0x4C	; 76
     b7e:	f1 e0       	ldi	r31, 0x01	; 1
     b80:	92 83       	std	Z+2, r25	; 0x02
     b82:	81 83       	std	Z+1, r24	; 0x01
     b84:	74 83       	std	Z+4, r23	; 0x04
     b86:	63 83       	std	Z+3, r22	; 0x03
     b88:	57 83       	std	Z+7, r21	; 0x07
     b8a:	46 83       	std	Z+6, r20	; 0x06
     b8c:	15 82       	std	Z+5, r1	; 0x05
     b8e:	08 95       	ret

00000b90 <I2C_Loop>:
     b90:	80 91 56 01 	lds	r24, 0x0156	; 0x800156 <TWI+0x2>
     b94:	84 36       	cpi	r24, 0x64	; 100
     b96:	10 f4       	brcc	.+4      	; 0xb9c <I2C_Loop+0xc>
     b98:	80 93 57 01 	sts	0x0157, r24	; 0x800157 <TWI+0x3>
     b9c:	85 30       	cpi	r24, 0x05	; 5
     b9e:	09 f4       	brne	.+2      	; 0xba2 <I2C_Loop+0x12>
     ba0:	9f c0       	rjmp	.+318    	; 0xce0 <I2C_Loop+0x150>
     ba2:	20 f5       	brcc	.+72     	; 0xbec <I2C_Loop+0x5c>
     ba4:	82 30       	cpi	r24, 0x02	; 2
     ba6:	09 f4       	brne	.+2      	; 0xbaa <I2C_Loop+0x1a>
     ba8:	65 c0       	rjmp	.+202    	; 0xc74 <I2C_Loop+0xe4>
     baa:	c8 f4       	brcc	.+50     	; 0xbde <I2C_Loop+0x4e>
     bac:	88 23       	and	r24, r24
     bae:	89 f1       	breq	.+98     	; 0xc12 <I2C_Loop+0x82>
     bb0:	81 30       	cpi	r24, 0x01	; 1
     bb2:	09 f0       	breq	.+2      	; 0xbb6 <I2C_Loop+0x26>
     bb4:	64 c1       	rjmp	.+712    	; 0xe7e <I2C_Loop+0x2ee>
     bb6:	10 92 b9 00 	sts	0x00B9, r1	; 0x8000b9 <__TEXT_REGION_LENGTH__+0x7e00b9>
     bba:	90 e2       	ldi	r25, 0x20	; 32
     bbc:	90 93 b8 00 	sts	0x00B8, r25	; 0x8000b8 <__TEXT_REGION_LENGTH__+0x7e00b8>
     bc0:	94 e0       	ldi	r25, 0x04	; 4
     bc2:	90 93 bc 00 	sts	0x00BC, r25	; 0x8000bc <__TEXT_REGION_LENGTH__+0x7e00bc>
     bc6:	98 b1       	in	r25, 0x08	; 8
     bc8:	90 63       	ori	r25, 0x30	; 48
     bca:	98 b9       	out	0x08, r25	; 8
     bcc:	10 92 7c 01 	sts	0x017C, r1	; 0x80017c <TWI+0x28>
     bd0:	80 93 55 01 	sts	0x0155, r24	; 0x800155 <TWI+0x1>
     bd4:	10 92 56 01 	sts	0x0156, r1	; 0x800156 <TWI+0x2>
     bd8:	80 93 5b 01 	sts	0x015B, r24	; 0x80015b <TWI+0x7>
     bdc:	08 95       	ret
     bde:	83 30       	cpi	r24, 0x03	; 3
     be0:	09 f4       	brne	.+2      	; 0xbe4 <I2C_Loop+0x54>
     be2:	4d c0       	rjmp	.+154    	; 0xc7e <I2C_Loop+0xee>
     be4:	84 30       	cpi	r24, 0x04	; 4
     be6:	09 f4       	brne	.+2      	; 0xbea <I2C_Loop+0x5a>
     be8:	61 c0       	rjmp	.+194    	; 0xcac <I2C_Loop+0x11c>
     bea:	49 c1       	rjmp	.+658    	; 0xe7e <I2C_Loop+0x2ee>
     bec:	8c 30       	cpi	r24, 0x0C	; 12
     bee:	09 f4       	brne	.+2      	; 0xbf2 <I2C_Loop+0x62>
     bf0:	f2 c0       	rjmp	.+484    	; 0xdd6 <I2C_Loop+0x246>
     bf2:	38 f4       	brcc	.+14     	; 0xc02 <I2C_Loop+0x72>
     bf4:	8a 30       	cpi	r24, 0x0A	; 10
     bf6:	09 f4       	brne	.+2      	; 0xbfa <I2C_Loop+0x6a>
     bf8:	a5 c0       	rjmp	.+330    	; 0xd44 <I2C_Loop+0x1b4>
     bfa:	8b 30       	cpi	r24, 0x0B	; 11
     bfc:	09 f4       	brne	.+2      	; 0xc00 <I2C_Loop+0x70>
     bfe:	c0 c0       	rjmp	.+384    	; 0xd80 <I2C_Loop+0x1f0>
     c00:	3e c1       	rjmp	.+636    	; 0xe7e <I2C_Loop+0x2ee>
     c02:	8d 30       	cpi	r24, 0x0D	; 13
     c04:	09 f4       	brne	.+2      	; 0xc08 <I2C_Loop+0x78>
     c06:	02 c1       	rjmp	.+516    	; 0xe0c <I2C_Loop+0x27c>
     c08:	84 36       	cpi	r24, 0x64	; 100
     c0a:	09 f0       	breq	.+2      	; 0xc0e <I2C_Loop+0x7e>
     c0c:	38 c1       	rjmp	.+624    	; 0xe7e <I2C_Loop+0x2ee>
     c0e:	00 00       	nop
     c10:	08 95       	ret
     c12:	80 91 54 01 	lds	r24, 0x0154	; 0x800154 <TWI>
     c16:	88 23       	and	r24, r24
     c18:	09 f4       	brne	.+2      	; 0xc1c <I2C_Loop+0x8c>
     c1a:	33 c1       	rjmp	.+614    	; 0xe82 <I2C_Loop+0x2f2>
     c1c:	80 91 55 01 	lds	r24, 0x0155	; 0x800155 <TWI+0x1>
     c20:	88 23       	and	r24, r24
     c22:	09 f4       	brne	.+2      	; 0xc26 <I2C_Loop+0x96>
     c24:	2e c1       	rjmp	.+604    	; 0xe82 <I2C_Loop+0x2f2>
     c26:	80 91 5b 01 	lds	r24, 0x015B	; 0x80015b <TWI+0x7>
     c2a:	8f 5f       	subi	r24, 0xFF	; 255
     c2c:	82 30       	cpi	r24, 0x02	; 2
     c2e:	08 f0       	brcs	.+2      	; 0xc32 <I2C_Loop+0xa2>
     c30:	81 e0       	ldi	r24, 0x01	; 1
     c32:	80 93 5b 01 	sts	0x015B, r24	; 0x80015b <TWI+0x7>
     c36:	e0 91 5b 01 	lds	r30, 0x015B	; 0x80015b <TWI+0x7>
     c3a:	8e 2f       	mov	r24, r30
     c3c:	90 e0       	ldi	r25, 0x00	; 0
     c3e:	2f e0       	ldi	r18, 0x0F	; 15
     c40:	e2 9f       	mul	r30, r18
     c42:	f0 01       	movw	r30, r0
     c44:	11 24       	eor	r1, r1
     c46:	ec 5a       	subi	r30, 0xAC	; 172
     c48:	fe 4f       	sbci	r31, 0xFE	; 254
     c4a:	21 89       	ldd	r18, Z+17	; 0x11
     c4c:	21 11       	cpse	r18, r1
     c4e:	04 c0       	rjmp	.+8      	; 0xc58 <I2C_Loop+0xc8>
     c50:	22 89       	ldd	r18, Z+18	; 0x12
     c52:	22 23       	and	r18, r18
     c54:	09 f4       	brne	.+2      	; 0xc58 <I2C_Loop+0xc8>
     c56:	15 c1       	rjmp	.+554    	; 0xe82 <I2C_Loop+0x2f2>
     c58:	2f e0       	ldi	r18, 0x0F	; 15
     c5a:	28 9f       	mul	r18, r24
     c5c:	f0 01       	movw	r30, r0
     c5e:	29 9f       	mul	r18, r25
     c60:	f0 0d       	add	r31, r0
     c62:	11 24       	eor	r1, r1
     c64:	ec 5a       	subi	r30, 0xAC	; 172
     c66:	fe 4f       	sbci	r31, 0xFE	; 254
     c68:	81 8d       	ldd	r24, Z+25	; 0x19
     c6a:	88 23       	and	r24, r24
     c6c:	09 f4       	brne	.+2      	; 0xc70 <I2C_Loop+0xe0>
     c6e:	09 c1       	rjmp	.+530    	; 0xe82 <I2C_Loop+0x2f2>
     c70:	82 e0       	ldi	r24, 0x02	; 2
     c72:	13 c0       	rjmp	.+38     	; 0xc9a <I2C_Loop+0x10a>
     c74:	83 e0       	ldi	r24, 0x03	; 3
     c76:	80 93 56 01 	sts	0x0156, r24	; 0x800156 <TWI+0x2>
     c7a:	84 ea       	ldi	r24, 0xA4	; 164
     c7c:	c4 c0       	rjmp	.+392    	; 0xe06 <I2C_Loop+0x276>
     c7e:	80 91 bc 00 	lds	r24, 0x00BC	; 0x8000bc <__TEXT_REGION_LENGTH__+0x7e00bc>
     c82:	87 ff       	sbrs	r24, 7
     c84:	fe c0       	rjmp	.+508    	; 0xe82 <I2C_Loop+0x2f2>
     c86:	80 91 b9 00 	lds	r24, 0x00B9	; 0x8000b9 <__TEXT_REGION_LENGTH__+0x7e00b9>
     c8a:	88 7f       	andi	r24, 0xF8	; 248
     c8c:	80 93 5c 01 	sts	0x015C, r24	; 0x80015c <TWI+0x8>
     c90:	88 30       	cpi	r24, 0x08	; 8
     c92:	11 f0       	breq	.+4      	; 0xc98 <I2C_Loop+0x108>
     c94:	80 31       	cpi	r24, 0x10	; 16
     c96:	21 f4       	brne	.+8      	; 0xca0 <I2C_Loop+0x110>
     c98:	84 e0       	ldi	r24, 0x04	; 4
     c9a:	80 93 56 01 	sts	0x0156, r24	; 0x800156 <TWI+0x2>
     c9e:	08 95       	ret
     ca0:	94 e6       	ldi	r25, 0x64	; 100
     ca2:	90 93 56 01 	sts	0x0156, r25	; 0x800156 <TWI+0x2>
     ca6:	80 93 57 01 	sts	0x0157, r24	; 0x800157 <TWI+0x3>
     caa:	08 95       	ret
     cac:	e0 91 5b 01 	lds	r30, 0x015B	; 0x80015b <TWI+0x7>
     cb0:	8f e0       	ldi	r24, 0x0F	; 15
     cb2:	e8 9f       	mul	r30, r24
     cb4:	f0 01       	movw	r30, r0
     cb6:	11 24       	eor	r1, r1
     cb8:	ec 5a       	subi	r30, 0xAC	; 172
     cba:	fe 4f       	sbci	r31, 0xFE	; 254
     cbc:	91 89       	ldd	r25, Z+17	; 0x11
     cbe:	85 89       	ldd	r24, Z+21	; 0x15
     cc0:	99 23       	and	r25, r25
     cc2:	29 f0       	breq	.+10     	; 0xcce <I2C_Loop+0x13e>
     cc4:	95 e0       	ldi	r25, 0x05	; 5
     cc6:	90 93 56 01 	sts	0x0156, r25	; 0x800156 <TWI+0x2>
     cca:	88 0f       	add	r24, r24
     ccc:	05 c0       	rjmp	.+10     	; 0xcd8 <I2C_Loop+0x148>
     cce:	95 e0       	ldi	r25, 0x05	; 5
     cd0:	90 93 56 01 	sts	0x0156, r25	; 0x800156 <TWI+0x2>
     cd4:	88 0f       	add	r24, r24
     cd6:	8f 5f       	subi	r24, 0xFF	; 255
     cd8:	80 93 bb 00 	sts	0x00BB, r24	; 0x8000bb <__TEXT_REGION_LENGTH__+0x7e00bb>
     cdc:	84 e8       	ldi	r24, 0x84	; 132
     cde:	93 c0       	rjmp	.+294    	; 0xe06 <I2C_Loop+0x276>
     ce0:	80 91 bc 00 	lds	r24, 0x00BC	; 0x8000bc <__TEXT_REGION_LENGTH__+0x7e00bc>
     ce4:	87 ff       	sbrs	r24, 7
     ce6:	cd c0       	rjmp	.+410    	; 0xe82 <I2C_Loop+0x2f2>
     ce8:	80 91 b9 00 	lds	r24, 0x00B9	; 0x8000b9 <__TEXT_REGION_LENGTH__+0x7e00b9>
     cec:	88 7f       	andi	r24, 0xF8	; 248
     cee:	80 93 5c 01 	sts	0x015C, r24	; 0x80015c <TWI+0x8>
     cf2:	88 31       	cpi	r24, 0x18	; 24
     cf4:	11 f0       	breq	.+4      	; 0xcfa <I2C_Loop+0x16a>
     cf6:	80 34       	cpi	r24, 0x40	; 64
     cf8:	69 f4       	brne	.+26     	; 0xd14 <I2C_Loop+0x184>
     cfa:	e0 91 5b 01 	lds	r30, 0x015B	; 0x80015b <TWI+0x7>
     cfe:	9f e0       	ldi	r25, 0x0F	; 15
     d00:	e9 9f       	mul	r30, r25
     d02:	f0 01       	movw	r30, r0
     d04:	11 24       	eor	r1, r1
     d06:	ec 5a       	subi	r30, 0xAC	; 172
     d08:	fe 4f       	sbci	r31, 0xFE	; 254
     d0a:	81 89       	ldd	r24, Z+17	; 0x11
     d0c:	88 23       	and	r24, r24
     d0e:	09 f4       	brne	.+2      	; 0xd12 <I2C_Loop+0x182>
     d10:	a7 c0       	rjmp	.+334    	; 0xe60 <I2C_Loop+0x2d0>
     d12:	51 c0       	rjmp	.+162    	; 0xdb6 <I2C_Loop+0x226>
     d14:	80 32       	cpi	r24, 0x20	; 32
     d16:	79 f4       	brne	.+30     	; 0xd36 <I2C_Loop+0x1a6>
     d18:	10 92 56 01 	sts	0x0156, r1	; 0x800156 <TWI+0x2>
     d1c:	e0 91 5b 01 	lds	r30, 0x015B	; 0x80015b <TWI+0x7>
     d20:	2f e0       	ldi	r18, 0x0F	; 15
     d22:	e2 9f       	mul	r30, r18
     d24:	f0 01       	movw	r30, r0
     d26:	11 24       	eor	r1, r1
     d28:	ec 5a       	subi	r30, 0xAC	; 172
     d2a:	fe 4f       	sbci	r31, 0xFE	; 254
     d2c:	11 8a       	std	Z+17, r1	; 0x11
     d2e:	12 8a       	std	Z+18, r1	; 0x12
     d30:	85 e6       	ldi	r24, 0x65	; 101
     d32:	80 8f       	std	Z+24, r24	; 0x18
     d34:	67 c0       	rjmp	.+206    	; 0xe04 <I2C_Loop+0x274>
     d36:	88 33       	cpi	r24, 0x38	; 56
     d38:	09 f4       	brne	.+2      	; 0xd3c <I2C_Loop+0x1ac>
     d3a:	9a cf       	rjmp	.-204    	; 0xc70 <I2C_Loop+0xe0>
     d3c:	80 93 57 01 	sts	0x0157, r24	; 0x800157 <TWI+0x3>
     d40:	84 e6       	ldi	r24, 0x64	; 100
     d42:	ab cf       	rjmp	.-170    	; 0xc9a <I2C_Loop+0x10a>
     d44:	e0 91 5b 01 	lds	r30, 0x015B	; 0x80015b <TWI+0x7>
     d48:	8f e0       	ldi	r24, 0x0F	; 15
     d4a:	e8 9f       	mul	r30, r24
     d4c:	f0 01       	movw	r30, r0
     d4e:	11 24       	eor	r1, r1
     d50:	ec 5a       	subi	r30, 0xAC	; 172
     d52:	fe 4f       	sbci	r31, 0xFE	; 254
     d54:	81 89       	ldd	r24, Z+17	; 0x11
     d56:	88 23       	and	r24, r24
     d58:	59 f0       	breq	.+22     	; 0xd70 <I2C_Loop+0x1e0>
     d5a:	03 84       	ldd	r0, Z+11	; 0x0b
     d5c:	f4 85       	ldd	r31, Z+12	; 0x0c
     d5e:	e0 2d       	mov	r30, r0
     d60:	80 81       	ld	r24, Z
     d62:	80 93 bb 00 	sts	0x00BB, r24	; 0x8000bb <__TEXT_REGION_LENGTH__+0x7e00bb>
     d66:	84 e8       	ldi	r24, 0x84	; 132
     d68:	80 93 bc 00 	sts	0x00BC, r24	; 0x8000bc <__TEXT_REGION_LENGTH__+0x7e00bc>
     d6c:	8b e0       	ldi	r24, 0x0B	; 11
     d6e:	95 cf       	rjmp	.-214    	; 0xc9a <I2C_Loop+0x10a>
     d70:	82 89       	ldd	r24, Z+18	; 0x12
     d72:	81 11       	cpse	r24, r1
     d74:	7d cf       	rjmp	.-262    	; 0xc70 <I2C_Loop+0xe0>
     d76:	10 8e       	std	Z+24, r1	; 0x18
     d78:	84 e9       	ldi	r24, 0x94	; 148
     d7a:	80 93 bc 00 	sts	0x00BC, r24	; 0x8000bc <__TEXT_REGION_LENGTH__+0x7e00bc>
     d7e:	7f c0       	rjmp	.+254    	; 0xe7e <I2C_Loop+0x2ee>
     d80:	80 91 bc 00 	lds	r24, 0x00BC	; 0x8000bc <__TEXT_REGION_LENGTH__+0x7e00bc>
     d84:	87 ff       	sbrs	r24, 7
     d86:	7d c0       	rjmp	.+250    	; 0xe82 <I2C_Loop+0x2f2>
     d88:	80 91 b9 00 	lds	r24, 0x00B9	; 0x8000b9 <__TEXT_REGION_LENGTH__+0x7e00b9>
     d8c:	88 7f       	andi	r24, 0xF8	; 248
     d8e:	80 93 5c 01 	sts	0x015C, r24	; 0x80015c <TWI+0x8>
     d92:	e0 91 5b 01 	lds	r30, 0x015B	; 0x80015b <TWI+0x7>
     d96:	88 32       	cpi	r24, 0x28	; 40
     d98:	81 f4       	brne	.+32     	; 0xdba <I2C_Loop+0x22a>
     d9a:	9f e0       	ldi	r25, 0x0F	; 15
     d9c:	e9 9f       	mul	r30, r25
     d9e:	f0 01       	movw	r30, r0
     da0:	11 24       	eor	r1, r1
     da2:	ec 5a       	subi	r30, 0xAC	; 172
     da4:	fe 4f       	sbci	r31, 0xFE	; 254
     da6:	83 85       	ldd	r24, Z+11	; 0x0b
     da8:	94 85       	ldd	r25, Z+12	; 0x0c
     daa:	01 96       	adiw	r24, 0x01	; 1
     dac:	94 87       	std	Z+12, r25	; 0x0c
     dae:	83 87       	std	Z+11, r24	; 0x0b
     db0:	81 89       	ldd	r24, Z+17	; 0x11
     db2:	81 50       	subi	r24, 0x01	; 1
     db4:	81 8b       	std	Z+17, r24	; 0x11
     db6:	8a e0       	ldi	r24, 0x0A	; 10
     db8:	70 cf       	rjmp	.-288    	; 0xc9a <I2C_Loop+0x10a>
     dba:	94 e9       	ldi	r25, 0x94	; 148
     dbc:	90 93 bc 00 	sts	0x00BC, r25	; 0x8000bc <__TEXT_REGION_LENGTH__+0x7e00bc>
     dc0:	2f e0       	ldi	r18, 0x0F	; 15
     dc2:	e2 9f       	mul	r30, r18
     dc4:	f0 01       	movw	r30, r0
     dc6:	11 24       	eor	r1, r1
     dc8:	ec 5a       	subi	r30, 0xAC	; 172
     dca:	fe 4f       	sbci	r31, 0xFE	; 254
     dcc:	80 8f       	std	Z+24, r24	; 0x18
     dce:	14 86       	std	Z+12, r1	; 0x0c
     dd0:	13 86       	std	Z+11, r1	; 0x0b
     dd2:	11 8a       	std	Z+17, r1	; 0x11
     dd4:	51 c0       	rjmp	.+162    	; 0xe78 <I2C_Loop+0x2e8>
     dd6:	e0 91 5b 01 	lds	r30, 0x015B	; 0x80015b <TWI+0x7>
     dda:	8f e0       	ldi	r24, 0x0F	; 15
     ddc:	e8 9f       	mul	r30, r24
     dde:	f0 01       	movw	r30, r0
     de0:	11 24       	eor	r1, r1
     de2:	ec 5a       	subi	r30, 0xAC	; 172
     de4:	fe 4f       	sbci	r31, 0xFE	; 254
     de6:	82 89       	ldd	r24, Z+18	; 0x12
     de8:	82 30       	cpi	r24, 0x02	; 2
     dea:	10 f0       	brcs	.+4      	; 0xdf0 <I2C_Loop+0x260>
     dec:	84 ec       	ldi	r24, 0xC4	; 196
     dee:	03 c0       	rjmp	.+6      	; 0xdf6 <I2C_Loop+0x266>
     df0:	81 30       	cpi	r24, 0x01	; 1
     df2:	29 f4       	brne	.+10     	; 0xdfe <I2C_Loop+0x26e>
     df4:	84 e8       	ldi	r24, 0x84	; 132
     df6:	80 93 bc 00 	sts	0x00BC, r24	; 0x8000bc <__TEXT_REGION_LENGTH__+0x7e00bc>
     dfa:	8d e0       	ldi	r24, 0x0D	; 13
     dfc:	4e cf       	rjmp	.-356    	; 0xc9a <I2C_Loop+0x10a>
     dfe:	10 92 56 01 	sts	0x0156, r1	; 0x800156 <TWI+0x2>
     e02:	10 8e       	std	Z+24, r1	; 0x18
     e04:	84 e9       	ldi	r24, 0x94	; 148
     e06:	80 93 bc 00 	sts	0x00BC, r24	; 0x8000bc <__TEXT_REGION_LENGTH__+0x7e00bc>
     e0a:	08 95       	ret
     e0c:	80 91 bc 00 	lds	r24, 0x00BC	; 0x8000bc <__TEXT_REGION_LENGTH__+0x7e00bc>
     e10:	87 ff       	sbrs	r24, 7
     e12:	37 c0       	rjmp	.+110    	; 0xe82 <I2C_Loop+0x2f2>
     e14:	80 91 b9 00 	lds	r24, 0x00B9	; 0x8000b9 <__TEXT_REGION_LENGTH__+0x7e00b9>
     e18:	98 2f       	mov	r25, r24
     e1a:	98 7f       	andi	r25, 0xF8	; 248
     e1c:	90 93 5c 01 	sts	0x015C, r25	; 0x80015c <TWI+0x8>
     e20:	80 7f       	andi	r24, 0xF0	; 240
     e22:	e0 91 5b 01 	lds	r30, 0x015B	; 0x80015b <TWI+0x7>
     e26:	80 35       	cpi	r24, 0x50	; 80
     e28:	e9 f4       	brne	.+58     	; 0xe64 <I2C_Loop+0x2d4>
     e2a:	8f e0       	ldi	r24, 0x0F	; 15
     e2c:	8e 9f       	mul	r24, r30
     e2e:	f0 01       	movw	r30, r0
     e30:	11 24       	eor	r1, r1
     e32:	ec 5a       	subi	r30, 0xAC	; 172
     e34:	fe 4f       	sbci	r31, 0xFE	; 254
     e36:	05 84       	ldd	r0, Z+13	; 0x0d
     e38:	f6 85       	ldd	r31, Z+14	; 0x0e
     e3a:	e0 2d       	mov	r30, r0
     e3c:	90 91 bb 00 	lds	r25, 0x00BB	; 0x8000bb <__TEXT_REGION_LENGTH__+0x7e00bb>
     e40:	90 83       	st	Z, r25
     e42:	e0 91 5b 01 	lds	r30, 0x015B	; 0x80015b <TWI+0x7>
     e46:	8e 9f       	mul	r24, r30
     e48:	f0 01       	movw	r30, r0
     e4a:	11 24       	eor	r1, r1
     e4c:	ec 5a       	subi	r30, 0xAC	; 172
     e4e:	fe 4f       	sbci	r31, 0xFE	; 254
     e50:	85 85       	ldd	r24, Z+13	; 0x0d
     e52:	96 85       	ldd	r25, Z+14	; 0x0e
     e54:	01 96       	adiw	r24, 0x01	; 1
     e56:	96 87       	std	Z+14, r25	; 0x0e
     e58:	85 87       	std	Z+13, r24	; 0x0d
     e5a:	82 89       	ldd	r24, Z+18	; 0x12
     e5c:	81 50       	subi	r24, 0x01	; 1
     e5e:	82 8b       	std	Z+18, r24	; 0x12
     e60:	8c e0       	ldi	r24, 0x0C	; 12
     e62:	1b cf       	rjmp	.-458    	; 0xc9a <I2C_Loop+0x10a>
     e64:	84 e9       	ldi	r24, 0x94	; 148
     e66:	80 93 bc 00 	sts	0x00BC, r24	; 0x8000bc <__TEXT_REGION_LENGTH__+0x7e00bc>
     e6a:	2f e0       	ldi	r18, 0x0F	; 15
     e6c:	e2 9f       	mul	r30, r18
     e6e:	f0 01       	movw	r30, r0
     e70:	11 24       	eor	r1, r1
     e72:	ec 5a       	subi	r30, 0xAC	; 172
     e74:	fe 4f       	sbci	r31, 0xFE	; 254
     e76:	90 8f       	std	Z+24, r25	; 0x18
     e78:	16 86       	std	Z+14, r1	; 0x0e
     e7a:	15 86       	std	Z+13, r1	; 0x0d
     e7c:	12 8a       	std	Z+18, r1	; 0x12
     e7e:	10 92 56 01 	sts	0x0156, r1	; 0x800156 <TWI+0x2>
     e82:	08 95       	ret

00000e84 <I2C_Init>:
     e84:	e4 e5       	ldi	r30, 0x54	; 84
     e86:	f1 e0       	ldi	r31, 0x01	; 1
     e88:	81 e0       	ldi	r24, 0x01	; 1
     e8a:	81 87       	std	Z+9, r24	; 0x09
     e8c:	82 83       	std	Z+2, r24	; 0x02
     e8e:	11 82       	std	Z+1, r1	; 0x01
     e90:	08 95       	ret

00000e92 <I2C_Enable>:
     e92:	81 e0       	ldi	r24, 0x01	; 1
     e94:	80 93 54 01 	sts	0x0154, r24	; 0x800154 <TWI>
     e98:	08 95       	ret

00000e9a <I2C_ID_State>:
     e9a:	2f e0       	ldi	r18, 0x0F	; 15
     e9c:	82 9f       	mul	r24, r18
     e9e:	c0 01       	movw	r24, r0
     ea0:	11 24       	eor	r1, r1
     ea2:	fc 01       	movw	r30, r24
     ea4:	ec 5a       	subi	r30, 0xAC	; 172
     ea6:	fe 4f       	sbci	r31, 0xFE	; 254
     ea8:	80 8d       	ldd	r24, Z+24	; 0x18
     eaa:	08 95       	ret

00000eac <I2C_ID_Ack_Error>:
     eac:	2f e0       	ldi	r18, 0x0F	; 15
     eae:	82 9f       	mul	r24, r18
     eb0:	c0 01       	movw	r24, r0
     eb2:	11 24       	eor	r1, r1
     eb4:	fc 01       	movw	r30, r24
     eb6:	ec 5a       	subi	r30, 0xAC	; 172
     eb8:	fe 4f       	sbci	r31, 0xFE	; 254
     eba:	10 8e       	std	Z+24, r1	; 0x18
     ebc:	08 95       	ret

00000ebe <I2C_Ready>:
     ebe:	2f e0       	ldi	r18, 0x0F	; 15
     ec0:	82 9f       	mul	r24, r18
     ec2:	c0 01       	movw	r24, r0
     ec4:	11 24       	eor	r1, r1
     ec6:	fc 01       	movw	r30, r24
     ec8:	ec 5a       	subi	r30, 0xAC	; 172
     eca:	fe 4f       	sbci	r31, 0xFE	; 254
     ecc:	80 8d       	ldd	r24, Z+24	; 0x18
     ece:	81 11       	cpse	r24, r1
     ed0:	05 c0       	rjmp	.+10     	; 0xedc <I2C_Ready+0x1e>
     ed2:	81 e0       	ldi	r24, 0x01	; 1
     ed4:	90 91 55 01 	lds	r25, 0x0155	; 0x800155 <TWI+0x1>
     ed8:	91 11       	cpse	r25, r1
     eda:	01 c0       	rjmp	.+2      	; 0xede <I2C_Ready+0x20>
     edc:	80 e0       	ldi	r24, 0x00	; 0
     ede:	08 95       	ret

00000ee0 <I2C_Send_ST>:
     ee0:	9c 01       	movw	r18, r24
     ee2:	21 50       	subi	r18, 0x01	; 1
     ee4:	31 40       	sbci	r19, 0x01	; 1
     ee6:	2e 3f       	cpi	r18, 0xFE	; 254
     ee8:	37 40       	sbci	r19, 0x07	; 7
     eea:	80 f4       	brcc	.+32     	; 0xf0c <I2C_Send_ST+0x2c>
     eec:	2f e0       	ldi	r18, 0x0F	; 15
     eee:	42 9f       	mul	r20, r18
     ef0:	f0 01       	movw	r30, r0
     ef2:	11 24       	eor	r1, r1
     ef4:	ec 5a       	subi	r30, 0xAC	; 172
     ef6:	fe 4f       	sbci	r31, 0xFE	; 254
     ef8:	94 87       	std	Z+12, r25	; 0x0c
     efa:	83 87       	std	Z+11, r24	; 0x0b
     efc:	16 86       	std	Z+14, r1	; 0x0e
     efe:	15 86       	std	Z+13, r1	; 0x0d
     f00:	61 8b       	std	Z+17, r22	; 0x11
     f02:	12 8a       	std	Z+18, r1	; 0x12
     f04:	81 e0       	ldi	r24, 0x01	; 1
     f06:	83 8b       	std	Z+19, r24	; 0x13
     f08:	82 e0       	ldi	r24, 0x02	; 2
     f0a:	80 8f       	std	Z+24, r24	; 0x18
     f0c:	08 95       	ret

00000f0e <I2C_Send_STr>:
     f0e:	0f 93       	push	r16
     f10:	fc 01       	movw	r30, r24
     f12:	e1 50       	subi	r30, 0x01	; 1
     f14:	f1 40       	sbci	r31, 0x01	; 1
     f16:	ee 3f       	cpi	r30, 0xFE	; 254
     f18:	f7 40       	sbci	r31, 0x07	; 7
     f1a:	b0 f4       	brcc	.+44     	; 0xf48 <I2C_Send_STr+0x3a>
     f1c:	fb 01       	movw	r30, r22
     f1e:	e1 50       	subi	r30, 0x01	; 1
     f20:	f1 40       	sbci	r31, 0x01	; 1
     f22:	ee 3f       	cpi	r30, 0xFE	; 254
     f24:	f7 40       	sbci	r31, 0x07	; 7
     f26:	80 f4       	brcc	.+32     	; 0xf48 <I2C_Send_STr+0x3a>
     f28:	3f e0       	ldi	r19, 0x0F	; 15
     f2a:	03 9f       	mul	r16, r19
     f2c:	f0 01       	movw	r30, r0
     f2e:	11 24       	eor	r1, r1
     f30:	ec 5a       	subi	r30, 0xAC	; 172
     f32:	fe 4f       	sbci	r31, 0xFE	; 254
     f34:	94 87       	std	Z+12, r25	; 0x0c
     f36:	83 87       	std	Z+11, r24	; 0x0b
     f38:	76 87       	std	Z+14, r23	; 0x0e
     f3a:	65 87       	std	Z+13, r22	; 0x0d
     f3c:	41 8b       	std	Z+17, r20	; 0x11
     f3e:	22 8b       	std	Z+18, r18	; 0x12
     f40:	81 e0       	ldi	r24, 0x01	; 1
     f42:	83 8b       	std	Z+19, r24	; 0x13
     f44:	82 e0       	ldi	r24, 0x02	; 2
     f46:	80 8f       	std	Z+24, r24	; 0x18
     f48:	0f 91       	pop	r16
     f4a:	08 95       	ret

00000f4c <I2C_Get_Ident>:
     f4c:	98 2f       	mov	r25, r24
     f4e:	80 91 55 01 	lds	r24, 0x0155	; 0x800155 <TWI+0x1>
     f52:	81 30       	cpi	r24, 0x01	; 1
     f54:	59 f4       	brne	.+22     	; 0xf6c <I2C_Get_Ident+0x20>
     f56:	20 91 7c 01 	lds	r18, 0x017C	; 0x80017c <TWI+0x28>
     f5a:	21 11       	cpse	r18, r1
     f5c:	07 c0       	rjmp	.+14     	; 0xf6c <I2C_Get_Ident+0x20>
     f5e:	80 93 7c 01 	sts	0x017C, r24	; 0x80017c <TWI+0x28>
     f62:	90 93 7a 01 	sts	0x017A, r25	; 0x80017a <TWI+0x26>
     f66:	60 93 78 01 	sts	0x0178, r22	; 0x800178 <TWI+0x24>
     f6a:	08 95       	ret
     f6c:	80 e0       	ldi	r24, 0x00	; 0
     f6e:	08 95       	ret

00000f70 <I2C_Free_Ident>:
     f70:	2f e0       	ldi	r18, 0x0F	; 15
     f72:	82 9f       	mul	r24, r18
     f74:	c0 01       	movw	r24, r0
     f76:	11 24       	eor	r1, r1
     f78:	fc 01       	movw	r30, r24
     f7a:	ec 5a       	subi	r30, 0xAC	; 172
     f7c:	fe 4f       	sbci	r31, 0xFE	; 254
     f7e:	11 8e       	std	Z+25, r1	; 0x19
     f80:	08 95       	ret

00000f82 <Next_Nixie>:
     f82:	85 b1       	in	r24, 0x05	; 5
     f84:	90 91 a7 01 	lds	r25, 0x01A7	; 0x8001a7 <N_Clock+0x27>
     f88:	91 11       	cpse	r25, r1
     f8a:	19 c0       	rjmp	.+50     	; 0xfbe <Next_Nixie+0x3c>
     f8c:	90 91 da 01 	lds	r25, 0x01DA	; 0x8001da <N_Clock+0x5a>
     f90:	90 93 a6 01 	sts	0x01A6, r25	; 0x8001a6 <N_Clock+0x26>
     f94:	90 91 db 01 	lds	r25, 0x01DB	; 0x8001db <N_Clock+0x5b>
     f98:	90 93 a7 01 	sts	0x01A7, r25	; 0x8001a7 <N_Clock+0x27>
     f9c:	88 7f       	andi	r24, 0xF8	; 248
     f9e:	90 91 81 01 	lds	r25, 0x0181	; 0x800181 <N_Clock+0x1>
     fa2:	9f 5f       	subi	r25, 0xFF	; 255
     fa4:	90 93 81 01 	sts	0x0181, r25	; 0x800181 <N_Clock+0x1>
     fa8:	20 91 e1 01 	lds	r18, 0x01E1	; 0x8001e1 <N_Clock+0x61>
     fac:	26 30       	cpi	r18, 0x06	; 6
     fae:	10 f4       	brcc	.+4      	; 0xfb4 <Next_Nixie+0x32>
     fb0:	93 30       	cpi	r25, 0x03	; 3
     fb2:	11 f0       	breq	.+4      	; 0xfb8 <Next_Nixie+0x36>
     fb4:	94 30       	cpi	r25, 0x04	; 4
     fb6:	18 f0       	brcs	.+6      	; 0xfbe <Next_Nixie+0x3c>
     fb8:	91 e0       	ldi	r25, 0x01	; 1
     fba:	90 93 81 01 	sts	0x0181, r25	; 0x800181 <N_Clock+0x1>
     fbe:	90 91 a6 01 	lds	r25, 0x01A6	; 0x8001a6 <N_Clock+0x26>
     fc2:	91 11       	cpse	r25, r1
     fc4:	16 c0       	rjmp	.+44     	; 0xff2 <Next_Nixie+0x70>
     fc6:	90 91 81 01 	lds	r25, 0x0181	; 0x800181 <N_Clock+0x1>
     fca:	92 30       	cpi	r25, 0x02	; 2
     fcc:	49 f0       	breq	.+18     	; 0xfe0 <Next_Nixie+0x5e>
     fce:	93 30       	cpi	r25, 0x03	; 3
     fd0:	61 f0       	breq	.+24     	; 0xfea <Next_Nixie+0x68>
     fd2:	91 30       	cpi	r25, 0x01	; 1
     fd4:	71 f4       	brne	.+28     	; 0xff2 <Next_Nixie+0x70>
     fd6:	90 91 9c 01 	lds	r25, 0x019C	; 0x80019c <N_Clock+0x1c>
     fda:	9b b9       	out	0x0b, r25	; 11
     fdc:	81 60       	ori	r24, 0x01	; 1
     fde:	09 c0       	rjmp	.+18     	; 0xff2 <Next_Nixie+0x70>
     fe0:	90 91 9d 01 	lds	r25, 0x019D	; 0x80019d <N_Clock+0x1d>
     fe4:	9b b9       	out	0x0b, r25	; 11
     fe6:	82 60       	ori	r24, 0x02	; 2
     fe8:	04 c0       	rjmp	.+8      	; 0xff2 <Next_Nixie+0x70>
     fea:	90 91 9e 01 	lds	r25, 0x019E	; 0x80019e <N_Clock+0x1e>
     fee:	9b b9       	out	0x0b, r25	; 11
     ff0:	84 60       	ori	r24, 0x04	; 4
     ff2:	85 b9       	out	0x05, r24	; 5
     ff4:	08 95       	ret

00000ff6 <Nixie_Update>:
     ff6:	82 30       	cpi	r24, 0x02	; 2
     ff8:	09 f4       	brne	.+2      	; 0xffc <Nixie_Update+0x6>
     ffa:	62 c0       	rjmp	.+196    	; 0x10c0 <Nixie_Update+0xca>
     ffc:	28 f4       	brcc	.+10     	; 0x1008 <Nixie_Update+0x12>
     ffe:	88 23       	and	r24, r24
    1000:	51 f0       	breq	.+20     	; 0x1016 <Nixie_Update+0x20>
    1002:	81 30       	cpi	r24, 0x01	; 1
    1004:	91 f0       	breq	.+36     	; 0x102a <Nixie_Update+0x34>
    1006:	08 95       	ret
    1008:	83 30       	cpi	r24, 0x03	; 3
    100a:	09 f4       	brne	.+2      	; 0x100e <Nixie_Update+0x18>
    100c:	4c c2       	rjmp	.+1176   	; 0x14a6 <Nixie_Update+0x4b0>
    100e:	84 30       	cpi	r24, 0x04	; 4
    1010:	09 f4       	brne	.+2      	; 0x1014 <Nixie_Update+0x1e>
    1012:	a1 c2       	rjmp	.+1346   	; 0x1556 <Nixie_Update+0x560>
    1014:	08 95       	ret
    1016:	80 e0       	ldi	r24, 0x00	; 0
    1018:	0e 94 ed 10 	call	0x21da	; 0x21da <Power_Mode>
    101c:	2c 98       	cbi	0x05, 4	; 5
    101e:	8a ea       	ldi	r24, 0xAA	; 170
    1020:	80 93 9c 01 	sts	0x019C, r24	; 0x80019c <N_Clock+0x1c>
    1024:	80 93 9d 01 	sts	0x019D, r24	; 0x80019d <N_Clock+0x1d>
    1028:	fe c2       	rjmp	.+1532   	; 0x1626 <Nixie_Update+0x630>
    102a:	81 e0       	ldi	r24, 0x01	; 1
    102c:	0e 94 ed 10 	call	0x21da	; 0x21da <Power_Mode>
    1030:	80 91 a1 01 	lds	r24, 0x01A1	; 0x8001a1 <N_Clock+0x21>
    1034:	83 30       	cpi	r24, 0x03	; 3
    1036:	81 f4       	brne	.+32     	; 0x1058 <Nixie_Update+0x62>
    1038:	80 91 ea 01 	lds	r24, 0x01EA	; 0x8001ea <RTC+0x8>
    103c:	88 23       	and	r24, r24
    103e:	19 f0       	breq	.+6      	; 0x1046 <Nixie_Update+0x50>
    1040:	85 b1       	in	r24, 0x05	; 5
    1042:	80 71       	andi	r24, 0x10	; 16
    1044:	07 c0       	rjmp	.+14     	; 0x1054 <Nixie_Update+0x5e>
    1046:	0e 94 72 13 	call	0x26e4	; 0x26e4 <Timer_Pulse_100ms>
    104a:	88 23       	and	r24, r24
    104c:	81 f0       	breq	.+32     	; 0x106e <Nixie_Update+0x78>
    104e:	95 b1       	in	r25, 0x05	; 5
    1050:	80 e1       	ldi	r24, 0x10	; 16
    1052:	89 27       	eor	r24, r25
    1054:	85 b9       	out	0x05, r24	; 5
    1056:	0b c0       	rjmp	.+22     	; 0x106e <Nixie_Update+0x78>
    1058:	80 91 e2 01 	lds	r24, 0x01E2	; 0x8001e2 <RTC>
    105c:	80 ff       	sbrs	r24, 0
    105e:	06 c0       	rjmp	.+12     	; 0x106c <Nixie_Update+0x76>
    1060:	80 91 e0 01 	lds	r24, 0x01E0	; 0x8001e0 <N_Clock+0x60>
    1064:	88 23       	and	r24, r24
    1066:	11 f0       	breq	.+4      	; 0x106c <Nixie_Update+0x76>
    1068:	2c 9a       	sbi	0x05, 4	; 5
    106a:	01 c0       	rjmp	.+2      	; 0x106e <Nixie_Update+0x78>
    106c:	2c 98       	cbi	0x05, 4	; 5
    106e:	80 91 a1 01 	lds	r24, 0x01A1	; 0x8001a1 <N_Clock+0x21>
    1072:	83 30       	cpi	r24, 0x03	; 3
    1074:	09 f0       	breq	.+2      	; 0x1078 <Nixie_Update+0x82>
    1076:	82 c0       	rjmp	.+260    	; 0x117c <Nixie_Update+0x186>
    1078:	80 91 e1 01 	lds	r24, 0x01E1	; 0x8001e1 <N_Clock+0x61>
    107c:	86 30       	cpi	r24, 0x06	; 6
    107e:	20 f4       	brcc	.+8      	; 0x1088 <Nixie_Update+0x92>
    1080:	80 91 a5 01 	lds	r24, 0x01A5	; 0x8001a5 <N_Clock+0x25>
    1084:	81 11       	cpse	r24, r1
    1086:	d1 c1       	rjmp	.+930    	; 0x142a <Nixie_Update+0x434>
    1088:	80 91 a3 01 	lds	r24, 0x01A3	; 0x8001a3 <N_Clock+0x23>
    108c:	82 30       	cpi	r24, 0x02	; 2
    108e:	09 f4       	brne	.+2      	; 0x1092 <Nixie_Update+0x9c>
    1090:	51 c0       	rjmp	.+162    	; 0x1134 <Nixie_Update+0x13e>
    1092:	83 30       	cpi	r24, 0x03	; 3
    1094:	09 f4       	brne	.+2      	; 0x1098 <Nixie_Update+0xa2>
    1096:	5a c0       	rjmp	.+180    	; 0x114c <Nixie_Update+0x156>
    1098:	81 30       	cpi	r24, 0x01	; 1
    109a:	09 f0       	breq	.+2      	; 0x109e <Nixie_Update+0xa8>
    109c:	c6 c2       	rjmp	.+1420   	; 0x162a <Nixie_Update+0x634>
    109e:	80 91 e4 01 	lds	r24, 0x01E4	; 0x8001e4 <RTC+0x2>
    10a2:	0e 94 79 01 	call	0x2f2	; 0x2f2 <DecimalToBCD>
    10a6:	80 93 9c 01 	sts	0x019C, r24	; 0x80019c <N_Clock+0x1c>
    10aa:	80 91 e3 01 	lds	r24, 0x01E3	; 0x8001e3 <RTC+0x1>
    10ae:	0e 94 79 01 	call	0x2f2	; 0x2f2 <DecimalToBCD>
    10b2:	80 93 9d 01 	sts	0x019D, r24	; 0x80019d <N_Clock+0x1d>
    10b6:	80 91 e2 01 	lds	r24, 0x01E2	; 0x8001e2 <RTC>
    10ba:	80 ff       	sbrs	r24, 0
    10bc:	39 c0       	rjmp	.+114    	; 0x1130 <Nixie_Update+0x13a>
    10be:	b1 c2       	rjmp	.+1378   	; 0x1622 <Nixie_Update+0x62c>
    10c0:	81 e0       	ldi	r24, 0x01	; 1
    10c2:	0e 94 ed 10 	call	0x21da	; 0x21da <Power_Mode>
    10c6:	80 91 a1 01 	lds	r24, 0x01A1	; 0x8001a1 <N_Clock+0x21>
    10ca:	83 30       	cpi	r24, 0x03	; 3
    10cc:	09 f0       	breq	.+2      	; 0x10d0 <Nixie_Update+0xda>
    10ce:	a6 c1       	rjmp	.+844    	; 0x141c <Nixie_Update+0x426>
    10d0:	0e 94 72 13 	call	0x26e4	; 0x26e4 <Timer_Pulse_100ms>
    10d4:	88 23       	and	r24, r24
    10d6:	21 f0       	breq	.+8      	; 0x10e0 <Nixie_Update+0xea>
    10d8:	95 b1       	in	r25, 0x05	; 5
    10da:	80 e1       	ldi	r24, 0x10	; 16
    10dc:	89 27       	eor	r24, r25
    10de:	85 b9       	out	0x05, r24	; 5
    10e0:	80 91 a1 01 	lds	r24, 0x01A1	; 0x8001a1 <N_Clock+0x21>
    10e4:	83 30       	cpi	r24, 0x03	; 3
    10e6:	09 f0       	breq	.+2      	; 0x10ea <Nixie_Update+0xf4>
    10e8:	cf c1       	rjmp	.+926    	; 0x1488 <Nixie_Update+0x492>
    10ea:	90 91 e1 01 	lds	r25, 0x01E1	; 0x8001e1 <N_Clock+0x61>
    10ee:	96 30       	cpi	r25, 0x06	; 6
    10f0:	08 f4       	brcc	.+2      	; 0x10f4 <Nixie_Update+0xfe>
    10f2:	96 c1       	rjmp	.+812    	; 0x1420 <Nixie_Update+0x42a>
    10f4:	80 91 a3 01 	lds	r24, 0x01A3	; 0x8001a3 <N_Clock+0x23>
    10f8:	8c 30       	cpi	r24, 0x0C	; 12
    10fa:	09 f4       	brne	.+2      	; 0x10fe <Nixie_Update+0x108>
    10fc:	a1 c1       	rjmp	.+834    	; 0x1440 <Nixie_Update+0x44a>
    10fe:	8d 30       	cpi	r24, 0x0D	; 13
    1100:	09 f4       	brne	.+2      	; 0x1104 <Nixie_Update+0x10e>
    1102:	aa c1       	rjmp	.+852    	; 0x1458 <Nixie_Update+0x462>
    1104:	8b 30       	cpi	r24, 0x0B	; 11
    1106:	09 f0       	breq	.+2      	; 0x110a <Nixie_Update+0x114>
    1108:	90 c2       	rjmp	.+1312   	; 0x162a <Nixie_Update+0x634>
    110a:	95 30       	cpi	r25, 0x05	; 5
    110c:	08 f4       	brcc	.+2      	; 0x1110 <Nixie_Update+0x11a>
    110e:	90 c1       	rjmp	.+800    	; 0x1430 <Nixie_Update+0x43a>
    1110:	80 91 e5 01 	lds	r24, 0x01E5	; 0x8001e5 <RTC+0x3>
    1114:	0e 94 79 01 	call	0x2f2	; 0x2f2 <DecimalToBCD>
    1118:	80 93 9c 01 	sts	0x019C, r24	; 0x80019c <N_Clock+0x1c>
    111c:	80 91 e6 01 	lds	r24, 0x01E6	; 0x8001e6 <RTC+0x4>
    1120:	0e 94 79 01 	call	0x2f2	; 0x2f2 <DecimalToBCD>
    1124:	80 93 9d 01 	sts	0x019D, r24	; 0x80019d <N_Clock+0x1d>
    1128:	80 91 e2 01 	lds	r24, 0x01E2	; 0x8001e2 <RTC>
    112c:	80 ff       	sbrs	r24, 0
    112e:	b8 c1       	rjmp	.+880    	; 0x14a0 <Nixie_Update+0x4aa>
    1130:	8a ea       	ldi	r24, 0xAA	; 170
    1132:	79 c2       	rjmp	.+1266   	; 0x1626 <Nixie_Update+0x630>
    1134:	80 91 e4 01 	lds	r24, 0x01E4	; 0x8001e4 <RTC+0x2>
    1138:	0e 94 79 01 	call	0x2f2	; 0x2f2 <DecimalToBCD>
    113c:	80 93 9c 01 	sts	0x019C, r24	; 0x80019c <N_Clock+0x1c>
    1140:	80 91 e2 01 	lds	r24, 0x01E2	; 0x8001e2 <RTC>
    1144:	80 fd       	sbrc	r24, 0
    1146:	0e c0       	rjmp	.+28     	; 0x1164 <Nixie_Update+0x16e>
    1148:	8a ea       	ldi	r24, 0xAA	; 170
    114a:	10 c0       	rjmp	.+32     	; 0x116c <Nixie_Update+0x176>
    114c:	80 91 e2 01 	lds	r24, 0x01E2	; 0x8001e2 <RTC>
    1150:	80 ff       	sbrs	r24, 0
    1152:	05 c0       	rjmp	.+10     	; 0x115e <Nixie_Update+0x168>
    1154:	80 91 e4 01 	lds	r24, 0x01E4	; 0x8001e4 <RTC+0x2>
    1158:	0e 94 79 01 	call	0x2f2	; 0x2f2 <DecimalToBCD>
    115c:	01 c0       	rjmp	.+2      	; 0x1160 <Nixie_Update+0x16a>
    115e:	8a ea       	ldi	r24, 0xAA	; 170
    1160:	80 93 9c 01 	sts	0x019C, r24	; 0x80019c <N_Clock+0x1c>
    1164:	80 91 e3 01 	lds	r24, 0x01E3	; 0x8001e3 <RTC+0x1>
    1168:	0e 94 79 01 	call	0x2f2	; 0x2f2 <DecimalToBCD>
    116c:	80 93 9d 01 	sts	0x019D, r24	; 0x80019d <N_Clock+0x1d>
    1170:	80 91 e1 01 	lds	r24, 0x01E1	; 0x8001e1 <N_Clock+0x61>
    1174:	85 30       	cpi	r24, 0x05	; 5
    1176:	08 f4       	brcc	.+2      	; 0x117a <Nixie_Update+0x184>
    1178:	58 c2       	rjmp	.+1200   	; 0x162a <Nixie_Update+0x634>
    117a:	10 c0       	rjmp	.+32     	; 0x119c <Nixie_Update+0x1a6>
    117c:	90 91 de 01 	lds	r25, 0x01DE	; 0x8001de <N_Clock+0x5e>
    1180:	91 11       	cpse	r25, r1
    1182:	0f c0       	rjmp	.+30     	; 0x11a2 <Nixie_Update+0x1ac>
    1184:	80 91 e4 01 	lds	r24, 0x01E4	; 0x8001e4 <RTC+0x2>
    1188:	0e 94 79 01 	call	0x2f2	; 0x2f2 <DecimalToBCD>
    118c:	80 93 9c 01 	sts	0x019C, r24	; 0x80019c <N_Clock+0x1c>
    1190:	80 91 e3 01 	lds	r24, 0x01E3	; 0x8001e3 <RTC+0x1>
    1194:	0e 94 79 01 	call	0x2f2	; 0x2f2 <DecimalToBCD>
    1198:	80 93 9d 01 	sts	0x019D, r24	; 0x80019d <N_Clock+0x1d>
    119c:	80 91 e2 01 	lds	r24, 0x01E2	; 0x8001e2 <RTC>
    11a0:	40 c2       	rjmp	.+1152   	; 0x1622 <Nixie_Update+0x62c>
    11a2:	80 91 95 01 	lds	r24, 0x0195	; 0x800195 <N_Clock+0x15>
    11a6:	81 30       	cpi	r24, 0x01	; 1
    11a8:	51 f1       	breq	.+84     	; 0x11fe <Nixie_Update+0x208>
    11aa:	20 f0       	brcs	.+8      	; 0x11b4 <Nixie_Update+0x1be>
    11ac:	82 30       	cpi	r24, 0x02	; 2
    11ae:	09 f4       	brne	.+2      	; 0x11b2 <Nixie_Update+0x1bc>
    11b0:	26 c1       	rjmp	.+588    	; 0x13fe <Nixie_Update+0x408>
    11b2:	08 95       	ret
    11b4:	80 91 e4 01 	lds	r24, 0x01E4	; 0x8001e4 <RTC+0x2>
    11b8:	0e 94 79 01 	call	0x2f2	; 0x2f2 <DecimalToBCD>
    11bc:	80 93 9c 01 	sts	0x019C, r24	; 0x80019c <N_Clock+0x1c>
    11c0:	80 91 e3 01 	lds	r24, 0x01E3	; 0x8001e3 <RTC+0x1>
    11c4:	0e 94 79 01 	call	0x2f2	; 0x2f2 <DecimalToBCD>
    11c8:	80 93 9d 01 	sts	0x019D, r24	; 0x80019d <N_Clock+0x1d>
    11cc:	80 91 e2 01 	lds	r24, 0x01E2	; 0x8001e2 <RTC>
    11d0:	0e 94 79 01 	call	0x2f2	; 0x2f2 <DecimalToBCD>
    11d4:	80 93 9e 01 	sts	0x019E, r24	; 0x80019e <N_Clock+0x1e>
    11d8:	43 e0       	ldi	r20, 0x03	; 3
    11da:	50 e0       	ldi	r21, 0x00	; 0
    11dc:	62 ee       	ldi	r22, 0xE2	; 226
    11de:	71 e0       	ldi	r23, 0x01	; 1
    11e0:	89 e9       	ldi	r24, 0x99	; 153
    11e2:	91 e0       	ldi	r25, 0x01	; 1
    11e4:	0e 94 c3 13 	call	0x2786	; 0x2786 <memcmp>
    11e8:	89 2b       	or	r24, r25
    11ea:	09 f4       	brne	.+2      	; 0x11ee <Nixie_Update+0x1f8>
    11ec:	1e c2       	rjmp	.+1084   	; 0x162a <Nixie_Update+0x634>
    11ee:	80 91 95 01 	lds	r24, 0x0195	; 0x800195 <N_Clock+0x15>
    11f2:	8f 5f       	subi	r24, 0xFF	; 255
    11f4:	80 93 95 01 	sts	0x0195, r24	; 0x800195 <N_Clock+0x15>
    11f8:	10 92 96 01 	sts	0x0196, r1	; 0x800196 <N_Clock+0x16>
    11fc:	08 95       	ret
    11fe:	30 91 9b 01 	lds	r19, 0x019B	; 0x80019b <N_Clock+0x1b>
    1202:	20 91 e4 01 	lds	r18, 0x01E4	; 0x8001e4 <RTC+0x2>
    1206:	91 30       	cpi	r25, 0x01	; 1
    1208:	09 f5       	brne	.+66     	; 0x124c <Nixie_Update+0x256>
    120a:	32 17       	cp	r19, r18
    120c:	31 f0       	breq	.+12     	; 0x121a <Nixie_Update+0x224>
    120e:	80 91 97 01 	lds	r24, 0x0197	; 0x800197 <N_Clock+0x17>
    1212:	88 23       	and	r24, r24
    1214:	11 f0       	breq	.+4      	; 0x121a <Nixie_Update+0x224>
    1216:	83 2f       	mov	r24, r19
    1218:	01 c0       	rjmp	.+2      	; 0x121c <Nixie_Update+0x226>
    121a:	82 2f       	mov	r24, r18
    121c:	0e 94 79 01 	call	0x2f2	; 0x2f2 <DecimalToBCD>
    1220:	80 93 9c 01 	sts	0x019C, r24	; 0x80019c <N_Clock+0x1c>
    1224:	90 91 9a 01 	lds	r25, 0x019A	; 0x80019a <N_Clock+0x1a>
    1228:	80 91 e3 01 	lds	r24, 0x01E3	; 0x8001e3 <RTC+0x1>
    122c:	98 17       	cp	r25, r24
    122e:	21 f0       	breq	.+8      	; 0x1238 <Nixie_Update+0x242>
    1230:	20 91 97 01 	lds	r18, 0x0197	; 0x800197 <N_Clock+0x17>
    1234:	21 11       	cpse	r18, r1
    1236:	89 2f       	mov	r24, r25
    1238:	0e 94 79 01 	call	0x2f2	; 0x2f2 <DecimalToBCD>
    123c:	80 93 9d 01 	sts	0x019D, r24	; 0x80019d <N_Clock+0x1d>
    1240:	80 91 97 01 	lds	r24, 0x0197	; 0x800197 <N_Clock+0x17>
    1244:	88 23       	and	r24, r24
    1246:	09 f4       	brne	.+2      	; 0x124a <Nixie_Update+0x254>
    1248:	b4 c0       	rjmp	.+360    	; 0x13b2 <Nixie_Update+0x3bc>
    124a:	47 c0       	rjmp	.+142    	; 0x12da <Nixie_Update+0x2e4>
    124c:	80 91 96 01 	lds	r24, 0x0196	; 0x800196 <N_Clock+0x16>
    1250:	86 30       	cpi	r24, 0x06	; 6
    1252:	08 f0       	brcs	.+2      	; 0x1256 <Nixie_Update+0x260>
    1254:	5a c0       	rjmp	.+180    	; 0x130a <Nixie_Update+0x314>
    1256:	32 17       	cp	r19, r18
    1258:	41 f0       	breq	.+16     	; 0x126a <Nixie_Update+0x274>
    125a:	80 91 97 01 	lds	r24, 0x0197	; 0x800197 <N_Clock+0x17>
    125e:	88 23       	and	r24, r24
    1260:	21 f0       	breq	.+8      	; 0x126a <Nixie_Update+0x274>
    1262:	83 2f       	mov	r24, r19
    1264:	0e 94 79 01 	call	0x2f2	; 0x2f2 <DecimalToBCD>
    1268:	11 c0       	rjmp	.+34     	; 0x128c <Nixie_Update+0x296>
    126a:	4a e0       	ldi	r20, 0x0A	; 10
    126c:	83 2f       	mov	r24, r19
    126e:	64 2f       	mov	r22, r20
    1270:	0e 94 89 13 	call	0x2712	; 0x2712 <__udivmodqi4>
    1274:	58 2f       	mov	r21, r24
    1276:	82 2f       	mov	r24, r18
    1278:	0e 94 89 13 	call	0x2712	; 0x2712 <__udivmodqi4>
    127c:	58 17       	cp	r21, r24
    127e:	11 f0       	breq	.+4      	; 0x1284 <Nixie_Update+0x28e>
    1280:	8a ea       	ldi	r24, 0xAA	; 170
    1282:	04 c0       	rjmp	.+8      	; 0x128c <Nixie_Update+0x296>
    1284:	83 2f       	mov	r24, r19
    1286:	0e 94 79 01 	call	0x2f2	; 0x2f2 <DecimalToBCD>
    128a:	8f 60       	ori	r24, 0x0F	; 15
    128c:	80 93 9c 01 	sts	0x019C, r24	; 0x80019c <N_Clock+0x1c>
    1290:	20 91 9a 01 	lds	r18, 0x019A	; 0x80019a <N_Clock+0x1a>
    1294:	40 91 e3 01 	lds	r20, 0x01E3	; 0x8001e3 <RTC+0x1>
    1298:	24 17       	cp	r18, r20
    129a:	41 f0       	breq	.+16     	; 0x12ac <Nixie_Update+0x2b6>
    129c:	80 91 97 01 	lds	r24, 0x0197	; 0x800197 <N_Clock+0x17>
    12a0:	88 23       	and	r24, r24
    12a2:	21 f0       	breq	.+8      	; 0x12ac <Nixie_Update+0x2b6>
    12a4:	82 2f       	mov	r24, r18
    12a6:	0e 94 79 01 	call	0x2f2	; 0x2f2 <DecimalToBCD>
    12aa:	11 c0       	rjmp	.+34     	; 0x12ce <Nixie_Update+0x2d8>
    12ac:	3a e0       	ldi	r19, 0x0A	; 10
    12ae:	82 2f       	mov	r24, r18
    12b0:	63 2f       	mov	r22, r19
    12b2:	0e 94 89 13 	call	0x2712	; 0x2712 <__udivmodqi4>
    12b6:	58 2f       	mov	r21, r24
    12b8:	84 2f       	mov	r24, r20
    12ba:	0e 94 89 13 	call	0x2712	; 0x2712 <__udivmodqi4>
    12be:	58 17       	cp	r21, r24
    12c0:	11 f0       	breq	.+4      	; 0x12c6 <Nixie_Update+0x2d0>
    12c2:	8a ea       	ldi	r24, 0xAA	; 170
    12c4:	04 c0       	rjmp	.+8      	; 0x12ce <Nixie_Update+0x2d8>
    12c6:	82 2f       	mov	r24, r18
    12c8:	0e 94 79 01 	call	0x2f2	; 0x2f2 <DecimalToBCD>
    12cc:	8f e0       	ldi	r24, 0x0F	; 15
    12ce:	80 93 9d 01 	sts	0x019D, r24	; 0x80019d <N_Clock+0x1d>
    12d2:	80 91 97 01 	lds	r24, 0x0197	; 0x800197 <N_Clock+0x17>
    12d6:	88 23       	and	r24, r24
    12d8:	19 f0       	breq	.+6      	; 0x12e0 <Nixie_Update+0x2ea>
    12da:	80 91 99 01 	lds	r24, 0x0199	; 0x800199 <N_Clock+0x19>
    12de:	6b c0       	rjmp	.+214    	; 0x13b6 <Nixie_Update+0x3c0>
    12e0:	20 91 99 01 	lds	r18, 0x0199	; 0x800199 <N_Clock+0x19>
    12e4:	3a e0       	ldi	r19, 0x0A	; 10
    12e6:	82 2f       	mov	r24, r18
    12e8:	63 2f       	mov	r22, r19
    12ea:	0e 94 89 13 	call	0x2712	; 0x2712 <__udivmodqi4>
    12ee:	48 2f       	mov	r20, r24
    12f0:	80 91 e2 01 	lds	r24, 0x01E2	; 0x8001e2 <RTC>
    12f4:	0e 94 89 13 	call	0x2712	; 0x2712 <__udivmodqi4>
    12f8:	48 17       	cp	r20, r24
    12fa:	11 f0       	breq	.+4      	; 0x1300 <Nixie_Update+0x30a>
    12fc:	8a ea       	ldi	r24, 0xAA	; 170
    12fe:	5d c0       	rjmp	.+186    	; 0x13ba <Nixie_Update+0x3c4>
    1300:	82 2f       	mov	r24, r18
    1302:	0e 94 79 01 	call	0x2f2	; 0x2f2 <DecimalToBCD>
    1306:	8f e0       	ldi	r24, 0x0F	; 15
    1308:	58 c0       	rjmp	.+176    	; 0x13ba <Nixie_Update+0x3c4>
    130a:	32 17       	cp	r19, r18
    130c:	b1 f0       	breq	.+44     	; 0x133a <Nixie_Update+0x344>
    130e:	80 91 97 01 	lds	r24, 0x0197	; 0x800197 <N_Clock+0x17>
    1312:	88 23       	and	r24, r24
    1314:	91 f0       	breq	.+36     	; 0x133a <Nixie_Update+0x344>
    1316:	4a e0       	ldi	r20, 0x0A	; 10
    1318:	83 2f       	mov	r24, r19
    131a:	64 2f       	mov	r22, r20
    131c:	0e 94 89 13 	call	0x2712	; 0x2712 <__udivmodqi4>
    1320:	38 2f       	mov	r19, r24
    1322:	82 2f       	mov	r24, r18
    1324:	0e 94 89 13 	call	0x2712	; 0x2712 <__udivmodqi4>
    1328:	38 17       	cp	r19, r24
    132a:	11 f0       	breq	.+4      	; 0x1330 <Nixie_Update+0x33a>
    132c:	8a ea       	ldi	r24, 0xAA	; 170
    132e:	08 c0       	rjmp	.+16     	; 0x1340 <Nixie_Update+0x34a>
    1330:	82 2f       	mov	r24, r18
    1332:	0e 94 79 01 	call	0x2f2	; 0x2f2 <DecimalToBCD>
    1336:	8f 60       	ori	r24, 0x0F	; 15
    1338:	03 c0       	rjmp	.+6      	; 0x1340 <Nixie_Update+0x34a>
    133a:	82 2f       	mov	r24, r18
    133c:	0e 94 79 01 	call	0x2f2	; 0x2f2 <DecimalToBCD>
    1340:	80 93 9c 01 	sts	0x019C, r24	; 0x80019c <N_Clock+0x1c>
    1344:	80 91 9a 01 	lds	r24, 0x019A	; 0x80019a <N_Clock+0x1a>
    1348:	20 91 e3 01 	lds	r18, 0x01E3	; 0x8001e3 <RTC+0x1>
    134c:	82 17       	cp	r24, r18
    134e:	a9 f0       	breq	.+42     	; 0x137a <Nixie_Update+0x384>
    1350:	90 91 97 01 	lds	r25, 0x0197	; 0x800197 <N_Clock+0x17>
    1354:	99 23       	and	r25, r25
    1356:	89 f0       	breq	.+34     	; 0x137a <Nixie_Update+0x384>
    1358:	3a e0       	ldi	r19, 0x0A	; 10
    135a:	63 2f       	mov	r22, r19
    135c:	0e 94 89 13 	call	0x2712	; 0x2712 <__udivmodqi4>
    1360:	48 2f       	mov	r20, r24
    1362:	82 2f       	mov	r24, r18
    1364:	0e 94 89 13 	call	0x2712	; 0x2712 <__udivmodqi4>
    1368:	48 17       	cp	r20, r24
    136a:	11 f0       	breq	.+4      	; 0x1370 <Nixie_Update+0x37a>
    136c:	8a ea       	ldi	r24, 0xAA	; 170
    136e:	08 c0       	rjmp	.+16     	; 0x1380 <Nixie_Update+0x38a>
    1370:	82 2f       	mov	r24, r18
    1372:	0e 94 79 01 	call	0x2f2	; 0x2f2 <DecimalToBCD>
    1376:	8f 60       	ori	r24, 0x0F	; 15
    1378:	03 c0       	rjmp	.+6      	; 0x1380 <Nixie_Update+0x38a>
    137a:	82 2f       	mov	r24, r18
    137c:	0e 94 79 01 	call	0x2f2	; 0x2f2 <DecimalToBCD>
    1380:	80 93 9d 01 	sts	0x019D, r24	; 0x80019d <N_Clock+0x1d>
    1384:	80 91 97 01 	lds	r24, 0x0197	; 0x800197 <N_Clock+0x17>
    1388:	88 23       	and	r24, r24
    138a:	99 f0       	breq	.+38     	; 0x13b2 <Nixie_Update+0x3bc>
    138c:	20 91 e2 01 	lds	r18, 0x01E2	; 0x8001e2 <RTC>
    1390:	80 91 99 01 	lds	r24, 0x0199	; 0x800199 <N_Clock+0x19>
    1394:	3a e0       	ldi	r19, 0x0A	; 10
    1396:	63 2f       	mov	r22, r19
    1398:	0e 94 89 13 	call	0x2712	; 0x2712 <__udivmodqi4>
    139c:	48 2f       	mov	r20, r24
    139e:	82 2f       	mov	r24, r18
    13a0:	0e 94 89 13 	call	0x2712	; 0x2712 <__udivmodqi4>
    13a4:	48 13       	cpse	r20, r24
    13a6:	aa cf       	rjmp	.-172    	; 0x12fc <Nixie_Update+0x306>
    13a8:	82 2f       	mov	r24, r18
    13aa:	0e 94 79 01 	call	0x2f2	; 0x2f2 <DecimalToBCD>
    13ae:	8f 60       	ori	r24, 0x0F	; 15
    13b0:	04 c0       	rjmp	.+8      	; 0x13ba <Nixie_Update+0x3c4>
    13b2:	80 91 e2 01 	lds	r24, 0x01E2	; 0x8001e2 <RTC>
    13b6:	0e 94 79 01 	call	0x2f2	; 0x2f2 <DecimalToBCD>
    13ba:	80 93 9e 01 	sts	0x019E, r24	; 0x80019e <N_Clock+0x1e>
    13be:	80 91 98 01 	lds	r24, 0x0198	; 0x800198 <N_Clock+0x18>
    13c2:	90 91 df 01 	lds	r25, 0x01DF	; 0x8001df <N_Clock+0x5f>
    13c6:	81 11       	cpse	r24, r1
    13c8:	0f c0       	rjmp	.+30     	; 0x13e8 <Nixie_Update+0x3f2>
    13ca:	80 91 97 01 	lds	r24, 0x0197	; 0x800197 <N_Clock+0x17>
    13ce:	81 11       	cpse	r24, r1
    13d0:	0b c0       	rjmp	.+22     	; 0x13e8 <Nixie_Update+0x3f2>
    13d2:	80 91 96 01 	lds	r24, 0x0196	; 0x800196 <N_Clock+0x16>
    13d6:	29 2f       	mov	r18, r25
    13d8:	28 1b       	sub	r18, r24
    13da:	20 93 97 01 	sts	0x0197, r18	; 0x800197 <N_Clock+0x17>
    13de:	80 93 98 01 	sts	0x0198, r24	; 0x800198 <N_Clock+0x18>
    13e2:	8f 5f       	subi	r24, 0xFF	; 255
    13e4:	80 93 96 01 	sts	0x0196, r24	; 0x800196 <N_Clock+0x16>
    13e8:	80 91 96 01 	lds	r24, 0x0196	; 0x800196 <N_Clock+0x16>
    13ec:	98 17       	cp	r25, r24
    13ee:	08 f0       	brcs	.+2      	; 0x13f2 <Nixie_Update+0x3fc>
    13f0:	1c c1       	rjmp	.+568    	; 0x162a <Nixie_Update+0x634>
    13f2:	80 91 95 01 	lds	r24, 0x0195	; 0x800195 <N_Clock+0x15>
    13f6:	8f 5f       	subi	r24, 0xFF	; 255
    13f8:	80 93 95 01 	sts	0x0195, r24	; 0x800195 <N_Clock+0x15>
    13fc:	08 95       	ret
    13fe:	80 91 e2 01 	lds	r24, 0x01E2	; 0x8001e2 <RTC>
    1402:	90 91 e3 01 	lds	r25, 0x01E3	; 0x8001e3 <RTC+0x1>
    1406:	a0 91 e4 01 	lds	r26, 0x01E4	; 0x8001e4 <RTC+0x2>
    140a:	80 93 99 01 	sts	0x0199, r24	; 0x800199 <N_Clock+0x19>
    140e:	90 93 9a 01 	sts	0x019A, r25	; 0x80019a <N_Clock+0x1a>
    1412:	a0 93 9b 01 	sts	0x019B, r26	; 0x80019b <N_Clock+0x1b>
    1416:	10 92 95 01 	sts	0x0195, r1	; 0x800195 <N_Clock+0x15>
    141a:	08 95       	ret
    141c:	2c 98       	cbi	0x05, 4	; 5
    141e:	60 ce       	rjmp	.-832    	; 0x10e0 <Nixie_Update+0xea>
    1420:	80 91 a5 01 	lds	r24, 0x01A5	; 0x8001a5 <N_Clock+0x25>
    1424:	88 23       	and	r24, r24
    1426:	09 f4       	brne	.+2      	; 0x142a <Nixie_Update+0x434>
    1428:	65 ce       	rjmp	.-822    	; 0x10f4 <Nixie_Update+0xfe>
    142a:	80 91 a3 01 	lds	r24, 0x01A3	; 0x8001a3 <N_Clock+0x23>
    142e:	73 c0       	rjmp	.+230    	; 0x1516 <Nixie_Update+0x520>
    1430:	84 e1       	ldi	r24, 0x14	; 20
    1432:	0e 94 79 01 	call	0x2f2	; 0x2f2 <DecimalToBCD>
    1436:	80 93 9c 01 	sts	0x019C, r24	; 0x80019c <N_Clock+0x1c>
    143a:	80 91 e7 01 	lds	r24, 0x01E7	; 0x8001e7 <RTC+0x5>
    143e:	84 c0       	rjmp	.+264    	; 0x1548 <Nixie_Update+0x552>
    1440:	80 91 e5 01 	lds	r24, 0x01E5	; 0x8001e5 <RTC+0x3>
    1444:	0e 94 79 01 	call	0x2f2	; 0x2f2 <DecimalToBCD>
    1448:	80 93 9c 01 	sts	0x019C, r24	; 0x80019c <N_Clock+0x1c>
    144c:	80 91 e2 01 	lds	r24, 0x01E2	; 0x8001e2 <RTC>
    1450:	80 ff       	sbrs	r24, 0
    1452:	09 c0       	rjmp	.+18     	; 0x1466 <Nixie_Update+0x470>
    1454:	8a ea       	ldi	r24, 0xAA	; 170
    1456:	0b c0       	rjmp	.+22     	; 0x146e <Nixie_Update+0x478>
    1458:	80 91 e2 01 	lds	r24, 0x01E2	; 0x8001e2 <RTC>
    145c:	80 ff       	sbrs	r24, 0
    145e:	0f c0       	rjmp	.+30     	; 0x147e <Nixie_Update+0x488>
    1460:	8a ea       	ldi	r24, 0xAA	; 170
    1462:	80 93 9c 01 	sts	0x019C, r24	; 0x80019c <N_Clock+0x1c>
    1466:	80 91 e6 01 	lds	r24, 0x01E6	; 0x8001e6 <RTC+0x4>
    146a:	0e 94 79 01 	call	0x2f2	; 0x2f2 <DecimalToBCD>
    146e:	80 93 9d 01 	sts	0x019D, r24	; 0x80019d <N_Clock+0x1d>
    1472:	80 91 e1 01 	lds	r24, 0x01E1	; 0x8001e1 <N_Clock+0x61>
    1476:	85 30       	cpi	r24, 0x05	; 5
    1478:	08 f4       	brcc	.+2      	; 0x147c <Nixie_Update+0x486>
    147a:	d7 c0       	rjmp	.+430    	; 0x162a <Nixie_Update+0x634>
    147c:	11 c0       	rjmp	.+34     	; 0x14a0 <Nixie_Update+0x4aa>
    147e:	80 91 e5 01 	lds	r24, 0x01E5	; 0x8001e5 <RTC+0x3>
    1482:	0e 94 79 01 	call	0x2f2	; 0x2f2 <DecimalToBCD>
    1486:	ed cf       	rjmp	.-38     	; 0x1462 <Nixie_Update+0x46c>
    1488:	80 91 e5 01 	lds	r24, 0x01E5	; 0x8001e5 <RTC+0x3>
    148c:	0e 94 79 01 	call	0x2f2	; 0x2f2 <DecimalToBCD>
    1490:	80 93 9c 01 	sts	0x019C, r24	; 0x80019c <N_Clock+0x1c>
    1494:	80 91 e6 01 	lds	r24, 0x01E6	; 0x8001e6 <RTC+0x4>
    1498:	0e 94 79 01 	call	0x2f2	; 0x2f2 <DecimalToBCD>
    149c:	80 93 9d 01 	sts	0x019D, r24	; 0x80019d <N_Clock+0x1d>
    14a0:	80 91 e7 01 	lds	r24, 0x01E7	; 0x8001e7 <RTC+0x5>
    14a4:	be c0       	rjmp	.+380    	; 0x1622 <Nixie_Update+0x62c>
    14a6:	81 e0       	ldi	r24, 0x01	; 1
    14a8:	0e 94 ed 10 	call	0x21da	; 0x21da <Power_Mode>
    14ac:	0e 94 72 13 	call	0x26e4	; 0x26e4 <Timer_Pulse_100ms>
    14b0:	88 23       	and	r24, r24
    14b2:	21 f0       	breq	.+8      	; 0x14bc <Nixie_Update+0x4c6>
    14b4:	95 b1       	in	r25, 0x05	; 5
    14b6:	80 e1       	ldi	r24, 0x10	; 16
    14b8:	89 27       	eor	r24, r25
    14ba:	85 b9       	out	0x05, r24	; 5
    14bc:	80 91 e1 01 	lds	r24, 0x01E1	; 0x8001e1 <N_Clock+0x61>
    14c0:	85 30       	cpi	r24, 0x05	; 5
    14c2:	20 f4       	brcc	.+8      	; 0x14cc <Nixie_Update+0x4d6>
    14c4:	80 91 a3 01 	lds	r24, 0x01A3	; 0x8001a3 <N_Clock+0x23>
    14c8:	83 33       	cpi	r24, 0x33	; 51
    14ca:	09 f5       	brne	.+66     	; 0x150e <Nixie_Update+0x518>
    14cc:	80 91 a3 01 	lds	r24, 0x01A3	; 0x8001a3 <N_Clock+0x23>
    14d0:	0e 94 79 01 	call	0x2f2	; 0x2f2 <DecimalToBCD>
    14d4:	80 93 9c 01 	sts	0x019C, r24	; 0x80019c <N_Clock+0x1c>
    14d8:	80 91 9f 01 	lds	r24, 0x019F	; 0x80019f <N_Clock+0x1f>
    14dc:	8a 30       	cpi	r24, 0x0A	; 10
    14de:	18 f0       	brcs	.+6      	; 0x14e6 <Nixie_Update+0x4f0>
    14e0:	0e 94 79 01 	call	0x2f2	; 0x2f2 <DecimalToBCD>
    14e4:	09 c0       	rjmp	.+18     	; 0x14f8 <Nixie_Update+0x502>
    14e6:	90 91 9d 01 	lds	r25, 0x019D	; 0x80019d <N_Clock+0x1d>
    14ea:	99 23       	and	r25, r25
    14ec:	21 f0       	breq	.+8      	; 0x14f6 <Nixie_Update+0x500>
    14ee:	0e 94 79 01 	call	0x2f2	; 0x2f2 <DecimalToBCD>
    14f2:	80 56       	subi	r24, 0x60	; 96
    14f4:	01 c0       	rjmp	.+2      	; 0x14f8 <Nixie_Update+0x502>
    14f6:	8a ea       	ldi	r24, 0xAA	; 170
    14f8:	80 93 9d 01 	sts	0x019D, r24	; 0x80019d <N_Clock+0x1d>
    14fc:	80 91 9e 01 	lds	r24, 0x019E	; 0x80019e <N_Clock+0x1e>
    1500:	88 23       	and	r24, r24
    1502:	19 f0       	breq	.+6      	; 0x150a <Nixie_Update+0x514>
    1504:	80 91 a0 01 	lds	r24, 0x01A0	; 0x8001a0 <N_Clock+0x20>
    1508:	8c c0       	rjmp	.+280    	; 0x1622 <Nixie_Update+0x62c>
    150a:	80 ea       	ldi	r24, 0xA0	; 160
    150c:	8c c0       	rjmp	.+280    	; 0x1626 <Nixie_Update+0x630>
    150e:	90 91 a5 01 	lds	r25, 0x01A5	; 0x8001a5 <N_Clock+0x25>
    1512:	99 23       	and	r25, r25
    1514:	29 f0       	breq	.+10     	; 0x1520 <Nixie_Update+0x52a>
    1516:	0e 94 79 01 	call	0x2f2	; 0x2f2 <DecimalToBCD>
    151a:	80 93 9c 01 	sts	0x019C, r24	; 0x80019c <N_Clock+0x1c>
    151e:	08 95       	ret
    1520:	80 91 9f 01 	lds	r24, 0x019F	; 0x80019f <N_Clock+0x1f>
    1524:	8a 30       	cpi	r24, 0x0A	; 10
    1526:	18 f0       	brcs	.+6      	; 0x152e <Nixie_Update+0x538>
    1528:	0e 94 79 01 	call	0x2f2	; 0x2f2 <DecimalToBCD>
    152c:	07 c0       	rjmp	.+14     	; 0x153c <Nixie_Update+0x546>
    152e:	88 23       	and	r24, r24
    1530:	21 f0       	breq	.+8      	; 0x153a <Nixie_Update+0x544>
    1532:	0e 94 79 01 	call	0x2f2	; 0x2f2 <DecimalToBCD>
    1536:	80 56       	subi	r24, 0x60	; 96
    1538:	01 c0       	rjmp	.+2      	; 0x153c <Nixie_Update+0x546>
    153a:	8a ea       	ldi	r24, 0xAA	; 170
    153c:	80 93 9c 01 	sts	0x019C, r24	; 0x80019c <N_Clock+0x1c>
    1540:	80 91 a0 01 	lds	r24, 0x01A0	; 0x8001a0 <N_Clock+0x20>
    1544:	88 23       	and	r24, r24
    1546:	19 f0       	breq	.+6      	; 0x154e <Nixie_Update+0x558>
    1548:	0e 94 79 01 	call	0x2f2	; 0x2f2 <DecimalToBCD>
    154c:	01 c0       	rjmp	.+2      	; 0x1550 <Nixie_Update+0x55a>
    154e:	80 ea       	ldi	r24, 0xA0	; 160
    1550:	80 93 9d 01 	sts	0x019D, r24	; 0x80019d <N_Clock+0x1d>
    1554:	08 95       	ret
    1556:	0e 94 72 13 	call	0x26e4	; 0x26e4 <Timer_Pulse_100ms>
    155a:	88 23       	and	r24, r24
    155c:	09 f4       	brne	.+2      	; 0x1560 <Nixie_Update+0x56a>
    155e:	41 c0       	rjmp	.+130    	; 0x15e2 <Nixie_Update+0x5ec>
    1560:	80 91 88 01 	lds	r24, 0x0188	; 0x800188 <N_Clock+0x8>
    1564:	8f 5f       	subi	r24, 0xFF	; 255
    1566:	80 93 88 01 	sts	0x0188, r24	; 0x800188 <N_Clock+0x8>
    156a:	80 91 82 01 	lds	r24, 0x0182	; 0x800182 <N_Clock+0x2>
    156e:	8f 5f       	subi	r24, 0xFF	; 255
    1570:	8a 30       	cpi	r24, 0x0A	; 10
    1572:	18 f4       	brcc	.+6      	; 0x157a <Nixie_Update+0x584>
    1574:	80 93 82 01 	sts	0x0182, r24	; 0x800182 <N_Clock+0x2>
    1578:	02 c0       	rjmp	.+4      	; 0x157e <Nixie_Update+0x588>
    157a:	10 92 82 01 	sts	0x0182, r1	; 0x800182 <N_Clock+0x2>
    157e:	80 91 83 01 	lds	r24, 0x0183	; 0x800183 <N_Clock+0x3>
    1582:	8f 5f       	subi	r24, 0xFF	; 255
    1584:	8a 30       	cpi	r24, 0x0A	; 10
    1586:	18 f4       	brcc	.+6      	; 0x158e <Nixie_Update+0x598>
    1588:	80 93 83 01 	sts	0x0183, r24	; 0x800183 <N_Clock+0x3>
    158c:	02 c0       	rjmp	.+4      	; 0x1592 <Nixie_Update+0x59c>
    158e:	10 92 83 01 	sts	0x0183, r1	; 0x800183 <N_Clock+0x3>
    1592:	80 91 84 01 	lds	r24, 0x0184	; 0x800184 <N_Clock+0x4>
    1596:	8f 5f       	subi	r24, 0xFF	; 255
    1598:	8a 30       	cpi	r24, 0x0A	; 10
    159a:	18 f4       	brcc	.+6      	; 0x15a2 <Nixie_Update+0x5ac>
    159c:	80 93 84 01 	sts	0x0184, r24	; 0x800184 <N_Clock+0x4>
    15a0:	02 c0       	rjmp	.+4      	; 0x15a6 <Nixie_Update+0x5b0>
    15a2:	10 92 84 01 	sts	0x0184, r1	; 0x800184 <N_Clock+0x4>
    15a6:	80 91 85 01 	lds	r24, 0x0185	; 0x800185 <N_Clock+0x5>
    15aa:	8f 5f       	subi	r24, 0xFF	; 255
    15ac:	8a 30       	cpi	r24, 0x0A	; 10
    15ae:	18 f4       	brcc	.+6      	; 0x15b6 <Nixie_Update+0x5c0>
    15b0:	80 93 85 01 	sts	0x0185, r24	; 0x800185 <N_Clock+0x5>
    15b4:	02 c0       	rjmp	.+4      	; 0x15ba <Nixie_Update+0x5c4>
    15b6:	10 92 85 01 	sts	0x0185, r1	; 0x800185 <N_Clock+0x5>
    15ba:	80 91 86 01 	lds	r24, 0x0186	; 0x800186 <N_Clock+0x6>
    15be:	8f 5f       	subi	r24, 0xFF	; 255
    15c0:	8a 30       	cpi	r24, 0x0A	; 10
    15c2:	18 f4       	brcc	.+6      	; 0x15ca <Nixie_Update+0x5d4>
    15c4:	80 93 86 01 	sts	0x0186, r24	; 0x800186 <N_Clock+0x6>
    15c8:	02 c0       	rjmp	.+4      	; 0x15ce <Nixie_Update+0x5d8>
    15ca:	10 92 86 01 	sts	0x0186, r1	; 0x800186 <N_Clock+0x6>
    15ce:	80 91 87 01 	lds	r24, 0x0187	; 0x800187 <N_Clock+0x7>
    15d2:	8f 5f       	subi	r24, 0xFF	; 255
    15d4:	8a 30       	cpi	r24, 0x0A	; 10
    15d6:	18 f4       	brcc	.+6      	; 0x15de <Nixie_Update+0x5e8>
    15d8:	80 93 87 01 	sts	0x0187, r24	; 0x800187 <N_Clock+0x7>
    15dc:	02 c0       	rjmp	.+4      	; 0x15e2 <Nixie_Update+0x5ec>
    15de:	10 92 87 01 	sts	0x0187, r1	; 0x800187 <N_Clock+0x7>
    15e2:	90 91 82 01 	lds	r25, 0x0182	; 0x800182 <N_Clock+0x2>
    15e6:	80 91 83 01 	lds	r24, 0x0183	; 0x800183 <N_Clock+0x3>
    15ea:	2a e0       	ldi	r18, 0x0A	; 10
    15ec:	92 9f       	mul	r25, r18
    15ee:	80 0d       	add	r24, r0
    15f0:	11 24       	eor	r1, r1
    15f2:	0e 94 79 01 	call	0x2f2	; 0x2f2 <DecimalToBCD>
    15f6:	80 93 9c 01 	sts	0x019C, r24	; 0x80019c <N_Clock+0x1c>
    15fa:	90 91 84 01 	lds	r25, 0x0184	; 0x800184 <N_Clock+0x4>
    15fe:	80 91 85 01 	lds	r24, 0x0185	; 0x800185 <N_Clock+0x5>
    1602:	2a e0       	ldi	r18, 0x0A	; 10
    1604:	92 9f       	mul	r25, r18
    1606:	80 0d       	add	r24, r0
    1608:	11 24       	eor	r1, r1
    160a:	0e 94 79 01 	call	0x2f2	; 0x2f2 <DecimalToBCD>
    160e:	80 93 9d 01 	sts	0x019D, r24	; 0x80019d <N_Clock+0x1d>
    1612:	90 91 86 01 	lds	r25, 0x0186	; 0x800186 <N_Clock+0x6>
    1616:	80 91 87 01 	lds	r24, 0x0187	; 0x800187 <N_Clock+0x7>
    161a:	2a e0       	ldi	r18, 0x0A	; 10
    161c:	92 9f       	mul	r25, r18
    161e:	80 0d       	add	r24, r0
    1620:	11 24       	eor	r1, r1
    1622:	0e 94 79 01 	call	0x2f2	; 0x2f2 <DecimalToBCD>
    1626:	80 93 9e 01 	sts	0x019E, r24	; 0x80019e <N_Clock+0x1e>
    162a:	08 95       	ret

0000162c <Setting_Init>:
    162c:	10 92 a8 01 	sts	0x01A8, r1	; 0x8001a8 <N_Clock+0x28>
    1630:	86 e1       	ldi	r24, 0x16	; 22
    1632:	90 e0       	ldi	r25, 0x00	; 0
    1634:	90 93 c3 01 	sts	0x01C3, r25	; 0x8001c3 <N_Clock+0x43>
    1638:	80 93 c2 01 	sts	0x01C2, r24	; 0x8001c2 <N_Clock+0x42>
    163c:	08 95       	ret

0000163e <Nixie_Init>:
    163e:	cf 93       	push	r28
    1640:	df 93       	push	r29
    1642:	c0 e8       	ldi	r28, 0x80	; 128
    1644:	d1 e0       	ldi	r29, 0x01	; 1
    1646:	80 e7       	ldi	r24, 0x70	; 112
    1648:	88 83       	st	Y, r24
    164a:	8a b1       	in	r24, 0x0a	; 10
    164c:	8f ef       	ldi	r24, 0xFF	; 255
    164e:	8a b9       	out	0x0a, r24	; 10
    1650:	84 b1       	in	r24, 0x04	; 4
    1652:	87 61       	ori	r24, 0x17	; 23
    1654:	84 b9       	out	0x04, r24	; 4
    1656:	87 b1       	in	r24, 0x07	; 7
    1658:	89 7f       	andi	r24, 0xF9	; 249
    165a:	87 b9       	out	0x07, r24	; 7
    165c:	19 82       	std	Y+1, r1	; 0x01
    165e:	80 e0       	ldi	r24, 0x00	; 0
    1660:	0e 94 ed 10 	call	0x21da	; 0x21da <Power_Mode>
    1664:	81 e0       	ldi	r24, 0x01	; 1
    1666:	89 a3       	std	Y+33, r24	; 0x21
    1668:	92 e0       	ldi	r25, 0x02	; 2
    166a:	90 93 da 01 	sts	0x01DA, r25	; 0x8001da <N_Clock+0x5a>
    166e:	95 e0       	ldi	r25, 0x05	; 5
    1670:	90 93 db 01 	sts	0x01DB, r25	; 0x8001db <N_Clock+0x5b>
    1674:	2c e2       	ldi	r18, 0x2C	; 44
    1676:	31 e0       	ldi	r19, 0x01	; 1
    1678:	30 93 c1 01 	sts	0x01C1, r19	; 0x8001c1 <N_Clock+0x41>
    167c:	20 93 c0 01 	sts	0x01C0, r18	; 0x8001c0 <N_Clock+0x40>
    1680:	8a a3       	std	Y+34, r24	; 0x22
    1682:	0e 94 a8 10 	call	0x2150	; 0x2150 <Power_Init>
    1686:	df 91       	pop	r29
    1688:	cf 91       	pop	r28
    168a:	0c 94 16 0b 	jmp	0x162c	; 0x162c <Setting_Init>

0000168e <Setting_Loop>:
    168e:	80 91 a8 01 	lds	r24, 0x01A8	; 0x8001a8 <N_Clock+0x28>
    1692:	81 30       	cpi	r24, 0x01	; 1
    1694:	89 f0       	breq	.+34     	; 0x16b8 <Setting_Loop+0x2a>
    1696:	20 f0       	brcs	.+8      	; 0x16a0 <Setting_Loop+0x12>
    1698:	82 30       	cpi	r24, 0x02	; 2
    169a:	09 f4       	brne	.+2      	; 0x169e <Setting_Loop+0x10>
    169c:	6d c0       	rjmp	.+218    	; 0x1778 <Setting_Loop+0xea>
    169e:	08 95       	ret
    16a0:	60 91 c2 01 	lds	r22, 0x01C2	; 0x8001c2 <N_Clock+0x42>
    16a4:	70 91 c3 01 	lds	r23, 0x01C3	; 0x8001c3 <N_Clock+0x43>
    16a8:	44 ec       	ldi	r20, 0xC4	; 196
    16aa:	51 e0       	ldi	r21, 0x01	; 1
    16ac:	80 e0       	ldi	r24, 0x00	; 0
    16ae:	90 e0       	ldi	r25, 0x00	; 0
    16b0:	0e 94 be 05 	call	0xb7c	; 0xb7c <EEPROM_Read>
    16b4:	81 e0       	ldi	r24, 0x01	; 1
    16b6:	5d c0       	rjmp	.+186    	; 0x1772 <Setting_Loop+0xe4>
    16b8:	0e 94 a7 05 	call	0xb4e	; 0xb4e <EEPROM_Status>
    16bc:	81 11       	cpse	r24, r1
    16be:	c9 c0       	rjmp	.+402    	; 0x1852 <Setting_Loop+0x1c4>
    16c0:	80 91 c4 01 	lds	r24, 0x01C4	; 0x8001c4 <N_Clock+0x44>
    16c4:	80 93 aa 01 	sts	0x01AA, r24	; 0x8001aa <N_Clock+0x2a>
    16c8:	80 91 c6 01 	lds	r24, 0x01C6	; 0x8001c6 <N_Clock+0x46>
    16cc:	80 93 ad 01 	sts	0x01AD, r24	; 0x8001ad <N_Clock+0x2d>
    16d0:	80 91 c5 01 	lds	r24, 0x01C5	; 0x8001c5 <N_Clock+0x45>
    16d4:	80 93 ab 01 	sts	0x01AB, r24	; 0x8001ab <N_Clock+0x2b>
    16d8:	80 91 c7 01 	lds	r24, 0x01C7	; 0x8001c7 <N_Clock+0x47>
    16dc:	80 93 af 01 	sts	0x01AF, r24	; 0x8001af <N_Clock+0x2f>
    16e0:	80 91 c8 01 	lds	r24, 0x01C8	; 0x8001c8 <N_Clock+0x48>
    16e4:	90 91 c9 01 	lds	r25, 0x01C9	; 0x8001c9 <N_Clock+0x49>
    16e8:	90 93 b1 01 	sts	0x01B1, r25	; 0x8001b1 <N_Clock+0x31>
    16ec:	80 93 b0 01 	sts	0x01B0, r24	; 0x8001b0 <N_Clock+0x30>
    16f0:	80 91 ca 01 	lds	r24, 0x01CA	; 0x8001ca <N_Clock+0x4a>
    16f4:	90 91 cb 01 	lds	r25, 0x01CB	; 0x8001cb <N_Clock+0x4b>
    16f8:	90 93 b3 01 	sts	0x01B3, r25	; 0x8001b3 <N_Clock+0x33>
    16fc:	80 93 b2 01 	sts	0x01B2, r24	; 0x8001b2 <N_Clock+0x32>
    1700:	80 91 cc 01 	lds	r24, 0x01CC	; 0x8001cc <N_Clock+0x4c>
    1704:	90 91 cd 01 	lds	r25, 0x01CD	; 0x8001cd <N_Clock+0x4d>
    1708:	a0 91 ce 01 	lds	r26, 0x01CE	; 0x8001ce <N_Clock+0x4e>
    170c:	80 93 b6 01 	sts	0x01B6, r24	; 0x8001b6 <N_Clock+0x36>
    1710:	90 93 b7 01 	sts	0x01B7, r25	; 0x8001b7 <N_Clock+0x37>
    1714:	a0 93 b8 01 	sts	0x01B8, r26	; 0x8001b8 <N_Clock+0x38>
    1718:	80 91 cf 01 	lds	r24, 0x01CF	; 0x8001cf <N_Clock+0x4f>
    171c:	90 91 d0 01 	lds	r25, 0x01D0	; 0x8001d0 <N_Clock+0x50>
    1720:	a0 91 d1 01 	lds	r26, 0x01D1	; 0x8001d1 <N_Clock+0x51>
    1724:	80 93 ba 01 	sts	0x01BA, r24	; 0x8001ba <N_Clock+0x3a>
    1728:	90 93 bb 01 	sts	0x01BB, r25	; 0x8001bb <N_Clock+0x3b>
    172c:	a0 93 bc 01 	sts	0x01BC, r26	; 0x8001bc <N_Clock+0x3c>
    1730:	80 91 d2 01 	lds	r24, 0x01D2	; 0x8001d2 <N_Clock+0x52>
    1734:	90 91 d3 01 	lds	r25, 0x01D3	; 0x8001d3 <N_Clock+0x53>
    1738:	90 93 bf 01 	sts	0x01BF, r25	; 0x8001bf <N_Clock+0x3f>
    173c:	80 93 be 01 	sts	0x01BE, r24	; 0x8001be <N_Clock+0x3e>
    1740:	80 91 d4 01 	lds	r24, 0x01D4	; 0x8001d4 <N_Clock+0x54>
    1744:	80 93 dc 01 	sts	0x01DC, r24	; 0x8001dc <N_Clock+0x5c>
    1748:	80 91 d5 01 	lds	r24, 0x01D5	; 0x8001d5 <N_Clock+0x55>
    174c:	80 93 dd 01 	sts	0x01DD, r24	; 0x8001dd <N_Clock+0x5d>
    1750:	80 91 d6 01 	lds	r24, 0x01D6	; 0x8001d6 <N_Clock+0x56>
    1754:	80 93 de 01 	sts	0x01DE, r24	; 0x8001de <N_Clock+0x5e>
    1758:	80 91 d7 01 	lds	r24, 0x01D7	; 0x8001d7 <N_Clock+0x57>
    175c:	80 93 df 01 	sts	0x01DF, r24	; 0x8001df <N_Clock+0x5f>
    1760:	80 91 d8 01 	lds	r24, 0x01D8	; 0x8001d8 <N_Clock+0x58>
    1764:	80 93 e0 01 	sts	0x01E0, r24	; 0x8001e0 <N_Clock+0x60>
    1768:	80 91 d9 01 	lds	r24, 0x01D9	; 0x8001d9 <N_Clock+0x59>
    176c:	80 93 e1 01 	sts	0x01E1, r24	; 0x8001e1 <N_Clock+0x61>
    1770:	82 e0       	ldi	r24, 0x02	; 2
    1772:	80 93 a8 01 	sts	0x01A8, r24	; 0x8001a8 <N_Clock+0x28>
    1776:	08 95       	ret
    1778:	80 91 a9 01 	lds	r24, 0x01A9	; 0x8001a9 <N_Clock+0x29>
    177c:	88 23       	and	r24, r24
    177e:	09 f4       	brne	.+2      	; 0x1782 <Setting_Loop+0xf4>
    1780:	68 c0       	rjmp	.+208    	; 0x1852 <Setting_Loop+0x1c4>
    1782:	0e 94 a7 05 	call	0xb4e	; 0xb4e <EEPROM_Status>
    1786:	81 11       	cpse	r24, r1
    1788:	64 c0       	rjmp	.+200    	; 0x1852 <Setting_Loop+0x1c4>
    178a:	10 92 a9 01 	sts	0x01A9, r1	; 0x8001a9 <N_Clock+0x29>
    178e:	80 91 aa 01 	lds	r24, 0x01AA	; 0x8001aa <N_Clock+0x2a>
    1792:	80 93 c4 01 	sts	0x01C4, r24	; 0x8001c4 <N_Clock+0x44>
    1796:	80 91 ad 01 	lds	r24, 0x01AD	; 0x8001ad <N_Clock+0x2d>
    179a:	80 93 c6 01 	sts	0x01C6, r24	; 0x8001c6 <N_Clock+0x46>
    179e:	80 91 ab 01 	lds	r24, 0x01AB	; 0x8001ab <N_Clock+0x2b>
    17a2:	80 93 c5 01 	sts	0x01C5, r24	; 0x8001c5 <N_Clock+0x45>
    17a6:	80 91 af 01 	lds	r24, 0x01AF	; 0x8001af <N_Clock+0x2f>
    17aa:	80 93 c7 01 	sts	0x01C7, r24	; 0x8001c7 <N_Clock+0x47>
    17ae:	80 91 b0 01 	lds	r24, 0x01B0	; 0x8001b0 <N_Clock+0x30>
    17b2:	90 91 b1 01 	lds	r25, 0x01B1	; 0x8001b1 <N_Clock+0x31>
    17b6:	90 93 c9 01 	sts	0x01C9, r25	; 0x8001c9 <N_Clock+0x49>
    17ba:	80 93 c8 01 	sts	0x01C8, r24	; 0x8001c8 <N_Clock+0x48>
    17be:	80 91 b2 01 	lds	r24, 0x01B2	; 0x8001b2 <N_Clock+0x32>
    17c2:	90 91 b3 01 	lds	r25, 0x01B3	; 0x8001b3 <N_Clock+0x33>
    17c6:	90 93 cb 01 	sts	0x01CB, r25	; 0x8001cb <N_Clock+0x4b>
    17ca:	80 93 ca 01 	sts	0x01CA, r24	; 0x8001ca <N_Clock+0x4a>
    17ce:	80 91 b6 01 	lds	r24, 0x01B6	; 0x8001b6 <N_Clock+0x36>
    17d2:	90 91 b7 01 	lds	r25, 0x01B7	; 0x8001b7 <N_Clock+0x37>
    17d6:	a0 91 b8 01 	lds	r26, 0x01B8	; 0x8001b8 <N_Clock+0x38>
    17da:	80 93 cc 01 	sts	0x01CC, r24	; 0x8001cc <N_Clock+0x4c>
    17de:	90 93 cd 01 	sts	0x01CD, r25	; 0x8001cd <N_Clock+0x4d>
    17e2:	a0 93 ce 01 	sts	0x01CE, r26	; 0x8001ce <N_Clock+0x4e>
    17e6:	80 91 ba 01 	lds	r24, 0x01BA	; 0x8001ba <N_Clock+0x3a>
    17ea:	90 91 bb 01 	lds	r25, 0x01BB	; 0x8001bb <N_Clock+0x3b>
    17ee:	a0 91 bc 01 	lds	r26, 0x01BC	; 0x8001bc <N_Clock+0x3c>
    17f2:	80 93 cf 01 	sts	0x01CF, r24	; 0x8001cf <N_Clock+0x4f>
    17f6:	90 93 d0 01 	sts	0x01D0, r25	; 0x8001d0 <N_Clock+0x50>
    17fa:	a0 93 d1 01 	sts	0x01D1, r26	; 0x8001d1 <N_Clock+0x51>
    17fe:	80 91 be 01 	lds	r24, 0x01BE	; 0x8001be <N_Clock+0x3e>
    1802:	90 91 bf 01 	lds	r25, 0x01BF	; 0x8001bf <N_Clock+0x3f>
    1806:	90 93 d3 01 	sts	0x01D3, r25	; 0x8001d3 <N_Clock+0x53>
    180a:	80 93 d2 01 	sts	0x01D2, r24	; 0x8001d2 <N_Clock+0x52>
    180e:	80 91 dc 01 	lds	r24, 0x01DC	; 0x8001dc <N_Clock+0x5c>
    1812:	80 93 d4 01 	sts	0x01D4, r24	; 0x8001d4 <N_Clock+0x54>
    1816:	80 91 dd 01 	lds	r24, 0x01DD	; 0x8001dd <N_Clock+0x5d>
    181a:	80 93 d5 01 	sts	0x01D5, r24	; 0x8001d5 <N_Clock+0x55>
    181e:	80 91 de 01 	lds	r24, 0x01DE	; 0x8001de <N_Clock+0x5e>
    1822:	80 93 d6 01 	sts	0x01D6, r24	; 0x8001d6 <N_Clock+0x56>
    1826:	80 91 df 01 	lds	r24, 0x01DF	; 0x8001df <N_Clock+0x5f>
    182a:	80 93 d7 01 	sts	0x01D7, r24	; 0x8001d7 <N_Clock+0x57>
    182e:	80 91 e0 01 	lds	r24, 0x01E0	; 0x8001e0 <N_Clock+0x60>
    1832:	80 93 d8 01 	sts	0x01D8, r24	; 0x8001d8 <N_Clock+0x58>
    1836:	80 91 e1 01 	lds	r24, 0x01E1	; 0x8001e1 <N_Clock+0x61>
    183a:	80 93 d9 01 	sts	0x01D9, r24	; 0x8001d9 <N_Clock+0x59>
    183e:	60 91 c2 01 	lds	r22, 0x01C2	; 0x8001c2 <N_Clock+0x42>
    1842:	70 91 c3 01 	lds	r23, 0x01C3	; 0x8001c3 <N_Clock+0x43>
    1846:	44 ec       	ldi	r20, 0xC4	; 196
    1848:	51 e0       	ldi	r21, 0x01	; 1
    184a:	80 e0       	ldi	r24, 0x00	; 0
    184c:	90 e0       	ldi	r25, 0x00	; 0
    184e:	0c 94 b2 05 	jmp	0xb64	; 0xb64 <EEPROM_Write>
    1852:	08 95       	ret

00001854 <Power_Safe>:
    1854:	80 91 a1 01 	lds	r24, 0x01A1	; 0x8001a1 <N_Clock+0x21>
    1858:	82 30       	cpi	r24, 0x02	; 2
    185a:	09 f0       	breq	.+2      	; 0x185e <Power_Safe+0xa>
    185c:	63 c0       	rjmp	.+198    	; 0x1924 <Power_Safe+0xd0>
    185e:	80 91 af 01 	lds	r24, 0x01AF	; 0x8001af <N_Clock+0x2f>
    1862:	88 23       	and	r24, r24
    1864:	09 f4       	brne	.+2      	; 0x1868 <Power_Safe+0x14>
    1866:	5e c0       	rjmp	.+188    	; 0x1924 <Power_Safe+0xd0>
    1868:	83 e0       	ldi	r24, 0x03	; 3
    186a:	0e 94 5e 01 	call	0x2bc	; 0x2bc <Analog_Channel_Ready>
    186e:	88 23       	and	r24, r24
    1870:	39 f0       	breq	.+14     	; 0x1880 <Power_Safe+0x2c>
    1872:	83 e0       	ldi	r24, 0x03	; 3
    1874:	0e 94 48 01 	call	0x290	; 0x290 <Analog_Channel_Read>
    1878:	90 93 b5 01 	sts	0x01B5, r25	; 0x8001b5 <N_Clock+0x35>
    187c:	80 93 b4 01 	sts	0x01B4, r24	; 0x8001b4 <N_Clock+0x34>
    1880:	0e 94 4b 11 	call	0x2296	; 0x2296 <RTC_Ready>
    1884:	88 23       	and	r24, r24
    1886:	09 f4       	brne	.+2      	; 0x188a <Power_Safe+0x36>
    1888:	4d c0       	rjmp	.+154    	; 0x1924 <Power_Safe+0xd0>
    188a:	80 91 af 01 	lds	r24, 0x01AF	; 0x8001af <N_Clock+0x2f>
    188e:	81 30       	cpi	r24, 0x01	; 1
    1890:	09 f4       	brne	.+2      	; 0x1894 <Power_Safe+0x40>
    1892:	48 c0       	rjmp	.+144    	; 0x1924 <Power_Safe+0xd0>
    1894:	50 91 ba 01 	lds	r21, 0x01BA	; 0x8001ba <N_Clock+0x3a>
    1898:	70 91 bb 01 	lds	r23, 0x01BB	; 0x8001bb <N_Clock+0x3b>
    189c:	90 91 bc 01 	lds	r25, 0x01BC	; 0x8001bc <N_Clock+0x3c>
    18a0:	60 91 b6 01 	lds	r22, 0x01B6	; 0x8001b6 <N_Clock+0x36>
    18a4:	e0 91 b7 01 	lds	r30, 0x01B7	; 0x8001b7 <N_Clock+0x37>
    18a8:	20 91 b8 01 	lds	r18, 0x01B8	; 0x8001b8 <N_Clock+0x38>
    18ac:	30 91 e2 01 	lds	r19, 0x01E2	; 0x8001e2 <RTC>
    18b0:	40 91 e3 01 	lds	r20, 0x01E3	; 0x8001e3 <RTC+0x1>
    18b4:	80 91 e4 01 	lds	r24, 0x01E4	; 0x8001e4 <RTC+0x2>
    18b8:	f0 91 ea 01 	lds	r31, 0x01EA	; 0x8001ea <RTC+0x8>
    18bc:	ff 23       	and	r31, r31
    18be:	a9 f0       	breq	.+42     	; 0x18ea <Power_Safe+0x96>
    18c0:	f0 91 bd 01 	lds	r31, 0x01BD	; 0x8001bd <N_Clock+0x3d>
    18c4:	ff 23       	and	r31, r31
    18c6:	19 f0       	breq	.+6      	; 0x18ce <Power_Safe+0x7a>
    18c8:	9c 30       	cpi	r25, 0x0C	; 12
    18ca:	09 f0       	breq	.+2      	; 0x18ce <Power_Safe+0x7a>
    18cc:	94 5f       	subi	r25, 0xF4	; 244
    18ce:	f0 91 b9 01 	lds	r31, 0x01B9	; 0x8001b9 <N_Clock+0x39>
    18d2:	ff 23       	and	r31, r31
    18d4:	19 f0       	breq	.+6      	; 0x18dc <Power_Safe+0x88>
    18d6:	2c 30       	cpi	r18, 0x0C	; 12
    18d8:	09 f0       	breq	.+2      	; 0x18dc <Power_Safe+0x88>
    18da:	24 5f       	subi	r18, 0xF4	; 244
    18dc:	f0 91 eb 01 	lds	r31, 0x01EB	; 0x8001eb <RTC+0x9>
    18e0:	ff 23       	and	r31, r31
    18e2:	19 f0       	breq	.+6      	; 0x18ea <Power_Safe+0x96>
    18e4:	8c 30       	cpi	r24, 0x0C	; 12
    18e6:	09 f0       	breq	.+2      	; 0x18ea <Power_Safe+0x96>
    18e8:	84 5f       	subi	r24, 0xF4	; 244
    18ea:	92 17       	cp	r25, r18
    18ec:	68 f4       	brcc	.+26     	; 0x1908 <Power_Safe+0xb4>
    18ee:	28 17       	cp	r18, r24
    18f0:	c8 f4       	brcc	.+50     	; 0x1924 <Power_Safe+0xd0>
    18f2:	89 17       	cp	r24, r25
    18f4:	b8 f4       	brcc	.+46     	; 0x1924 <Power_Safe+0xd0>
    18f6:	e4 17       	cp	r30, r20
    18f8:	a8 f4       	brcc	.+42     	; 0x1924 <Power_Safe+0xd0>
    18fa:	47 17       	cp	r20, r23
    18fc:	98 f4       	brcc	.+38     	; 0x1924 <Power_Safe+0xd0>
    18fe:	63 17       	cp	r22, r19
    1900:	88 f4       	brcc	.+34     	; 0x1924 <Power_Safe+0xd0>
    1902:	35 17       	cp	r19, r21
    1904:	78 f4       	brcc	.+30     	; 0x1924 <Power_Safe+0xd0>
    1906:	10 c0       	rjmp	.+32     	; 0x1928 <Power_Safe+0xd4>
    1908:	29 17       	cp	r18, r25
    190a:	60 f4       	brcc	.+24     	; 0x1924 <Power_Safe+0xd0>
    190c:	82 17       	cp	r24, r18
    190e:	50 f4       	brcc	.+20     	; 0x1924 <Power_Safe+0xd0>
    1910:	98 17       	cp	r25, r24
    1912:	40 f4       	brcc	.+16     	; 0x1924 <Power_Safe+0xd0>
    1914:	4e 17       	cp	r20, r30
    1916:	30 f4       	brcc	.+12     	; 0x1924 <Power_Safe+0xd0>
    1918:	74 17       	cp	r23, r20
    191a:	20 f4       	brcc	.+8      	; 0x1924 <Power_Safe+0xd0>
    191c:	36 17       	cp	r19, r22
    191e:	10 f4       	brcc	.+4      	; 0x1924 <Power_Safe+0xd0>
    1920:	53 17       	cp	r21, r19
    1922:	10 f0       	brcs	.+4      	; 0x1928 <Power_Safe+0xd4>
    1924:	80 e0       	ldi	r24, 0x00	; 0
    1926:	08 95       	ret
    1928:	81 e0       	ldi	r24, 0x01	; 1
    192a:	08 95       	ret

0000192c <Nixie_Loop>:
    192c:	ef 92       	push	r14
    192e:	ff 92       	push	r15
    1930:	0f 93       	push	r16
    1932:	1f 93       	push	r17
    1934:	cf 93       	push	r28
    1936:	df 93       	push	r29
    1938:	0e 94 2a 0c 	call	0x1854	; 0x1854 <Power_Safe>
    193c:	c8 2f       	mov	r28, r24
    193e:	80 91 a1 01 	lds	r24, 0x01A1	; 0x8001a1 <N_Clock+0x21>
    1942:	81 30       	cpi	r24, 0x01	; 1
    1944:	29 f0       	breq	.+10     	; 0x1950 <Nixie_Loop+0x24>
    1946:	08 f4       	brcc	.+2      	; 0x194a <Nixie_Loop+0x1e>
    1948:	40 c3       	rjmp	.+1664   	; 0x1fca <Nixie_Loop+0x69e>
    194a:	84 30       	cpi	r24, 0x04	; 4
    194c:	d8 f0       	brcs	.+54     	; 0x1984 <Nixie_Loop+0x58>
    194e:	3d c3       	rjmp	.+1658   	; 0x1fca <Nixie_Loop+0x69e>
    1950:	c0 91 a8 01 	lds	r28, 0x01A8	; 0x8001a8 <N_Clock+0x28>
    1954:	c2 30       	cpi	r28, 0x02	; 2
    1956:	09 f0       	breq	.+2      	; 0x195a <Nixie_Loop+0x2e>
    1958:	38 c3       	rjmp	.+1648   	; 0x1fca <Nixie_Loop+0x69e>
    195a:	81 e0       	ldi	r24, 0x01	; 1
    195c:	0e 94 ed 10 	call	0x21da	; 0x21da <Power_Mode>
    1960:	80 91 e1 01 	lds	r24, 0x01E1	; 0x8001e1 <N_Clock+0x61>
    1964:	8d 7f       	andi	r24, 0xFD	; 253
    1966:	84 30       	cpi	r24, 0x04	; 4
    1968:	51 f0       	breq	.+20     	; 0x197e <Nixie_Loop+0x52>
    196a:	84 e0       	ldi	r24, 0x04	; 4
    196c:	80 93 e1 01 	sts	0x01E1, r24	; 0x8001e1 <N_Clock+0x61>
    1970:	83 e0       	ldi	r24, 0x03	; 3
    1972:	80 93 a1 01 	sts	0x01A1, r24	; 0x8001a1 <N_Clock+0x21>
    1976:	83 e3       	ldi	r24, 0x33	; 51
    1978:	80 93 a3 01 	sts	0x01A3, r24	; 0x8001a3 <N_Clock+0x23>
    197c:	26 c3       	rjmp	.+1612   	; 0x1fca <Nixie_Loop+0x69e>
    197e:	c0 93 a1 01 	sts	0x01A1, r28	; 0x8001a1 <N_Clock+0x21>
    1982:	23 c3       	rjmp	.+1606   	; 0x1fca <Nixie_Loop+0x69e>
    1984:	0e 94 c1 07 	call	0xf82	; 0xf82 <Next_Nixie>
    1988:	31 99       	sbic	0x06, 1	; 6
    198a:	02 c0       	rjmp	.+4      	; 0x1990 <Nixie_Loop+0x64>
    198c:	32 9b       	sbis	0x06, 2	; 6
    198e:	03 c0       	rjmp	.+6      	; 0x1996 <Nixie_Loop+0x6a>
    1990:	88 ec       	ldi	r24, 0xC8	; 200
    1992:	80 93 7d 01 	sts	0x017D, r24	; 0x80017d <Debounce>
    1996:	80 91 7d 01 	lds	r24, 0x017D	; 0x80017d <Debounce>
    199a:	81 11       	cpse	r24, r1
    199c:	20 c0       	rjmp	.+64     	; 0x19de <Nixie_Loop+0xb2>
    199e:	80 91 a1 01 	lds	r24, 0x01A1	; 0x8001a1 <N_Clock+0x21>
    19a2:	82 30       	cpi	r24, 0x02	; 2
    19a4:	89 f4       	brne	.+34     	; 0x19c8 <Nixie_Loop+0x9c>
    19a6:	93 e0       	ldi	r25, 0x03	; 3
    19a8:	90 93 a1 01 	sts	0x01A1, r25	; 0x8001a1 <N_Clock+0x21>
    19ac:	98 ec       	ldi	r25, 0xC8	; 200
    19ae:	90 93 7d 01 	sts	0x017D, r25	; 0x80017d <Debounce>
    19b2:	94 e6       	ldi	r25, 0x64	; 100
    19b4:	90 93 7e 01 	sts	0x017E, r25	; 0x80017e <Debounce+0x1>
    19b8:	90 91 e1 01 	lds	r25, 0x01E1	; 0x8001e1 <N_Clock+0x61>
    19bc:	96 30       	cpi	r25, 0x06	; 6
    19be:	08 f0       	brcs	.+2      	; 0x19c2 <Nixie_Loop+0x96>
    19c0:	81 e0       	ldi	r24, 0x01	; 1
    19c2:	80 93 a3 01 	sts	0x01A3, r24	; 0x8001a3 <N_Clock+0x23>
    19c6:	0b c0       	rjmp	.+22     	; 0x19de <Nixie_Loop+0xb2>
    19c8:	82 e0       	ldi	r24, 0x02	; 2
    19ca:	80 93 a1 01 	sts	0x01A1, r24	; 0x8001a1 <N_Clock+0x21>
    19ce:	88 ec       	ldi	r24, 0xC8	; 200
    19d0:	80 93 7d 01 	sts	0x017D, r24	; 0x80017d <Debounce>
    19d4:	80 91 a9 01 	lds	r24, 0x01A9	; 0x8001a9 <N_Clock+0x29>
    19d8:	8f 5f       	subi	r24, 0xFF	; 255
    19da:	80 93 a9 01 	sts	0x01A9, r24	; 0x8001a9 <N_Clock+0x29>
    19de:	80 91 a1 01 	lds	r24, 0x01A1	; 0x8001a1 <N_Clock+0x21>
    19e2:	82 30       	cpi	r24, 0x02	; 2
    19e4:	21 f0       	breq	.+8      	; 0x19ee <Nixie_Loop+0xc2>
    19e6:	83 30       	cpi	r24, 0x03	; 3
    19e8:	09 f4       	brne	.+2      	; 0x19ec <Nixie_Loop+0xc0>
    19ea:	f6 c0       	rjmp	.+492    	; 0x1bd8 <Nixie_Loop+0x2ac>
    19ec:	ee c2       	rjmp	.+1500   	; 0x1fca <Nixie_Loop+0x69e>
    19ee:	80 91 a2 01 	lds	r24, 0x01A2	; 0x8001a2 <N_Clock+0x22>
    19f2:	81 50       	subi	r24, 0x01	; 1
    19f4:	82 30       	cpi	r24, 0x02	; 2
    19f6:	08 f0       	brcs	.+2      	; 0x19fa <Nixie_Loop+0xce>
    19f8:	61 c0       	rjmp	.+194    	; 0x1abc <Nixie_Loop+0x190>
    19fa:	80 91 dd 01 	lds	r24, 0x01DD	; 0x8001dd <N_Clock+0x5d>
    19fe:	88 23       	and	r24, r24
    1a00:	11 f1       	breq	.+68     	; 0x1a46 <Nixie_Loop+0x11a>
    1a02:	80 91 e2 01 	lds	r24, 0x01E2	; 0x8001e2 <RTC>
    1a06:	81 11       	cpse	r24, r1
    1a08:	1e c0       	rjmp	.+60     	; 0x1a46 <Nixie_Loop+0x11a>
    1a0a:	80 91 e4 01 	lds	r24, 0x01E4	; 0x8001e4 <RTC+0x2>
    1a0e:	3a e0       	ldi	r19, 0x0A	; 10
    1a10:	63 2f       	mov	r22, r19
    1a12:	0e 94 89 13 	call	0x2712	; 0x2712 <__udivmodqi4>
    1a16:	29 2f       	mov	r18, r25
    1a18:	80 93 82 01 	sts	0x0182, r24	; 0x800182 <N_Clock+0x2>
    1a1c:	90 93 83 01 	sts	0x0183, r25	; 0x800183 <N_Clock+0x3>
    1a20:	80 91 e3 01 	lds	r24, 0x01E3	; 0x8001e3 <RTC+0x1>
    1a24:	0e 94 89 13 	call	0x2712	; 0x2712 <__udivmodqi4>
    1a28:	80 93 84 01 	sts	0x0184, r24	; 0x800184 <N_Clock+0x4>
    1a2c:	90 93 85 01 	sts	0x0185, r25	; 0x800185 <N_Clock+0x5>
    1a30:	80 91 e1 01 	lds	r24, 0x01E1	; 0x8001e1 <N_Clock+0x61>
    1a34:	85 30       	cpi	r24, 0x05	; 5
    1a36:	20 f0       	brcs	.+8      	; 0x1a40 <Nixie_Loop+0x114>
    1a38:	20 93 86 01 	sts	0x0186, r18	; 0x800186 <N_Clock+0x6>
    1a3c:	90 93 87 01 	sts	0x0187, r25	; 0x800187 <N_Clock+0x7>
    1a40:	84 e0       	ldi	r24, 0x04	; 4
    1a42:	80 93 a2 01 	sts	0x01A2, r24	; 0x8001a2 <N_Clock+0x22>
    1a46:	80 91 af 01 	lds	r24, 0x01AF	; 0x8001af <N_Clock+0x2f>
    1a4a:	82 30       	cpi	r24, 0x02	; 2
    1a4c:	29 f0       	breq	.+10     	; 0x1a58 <Nixie_Loop+0x12c>
    1a4e:	83 30       	cpi	r24, 0x03	; 3
    1a50:	51 f0       	breq	.+20     	; 0x1a66 <Nixie_Loop+0x13a>
    1a52:	81 30       	cpi	r24, 0x01	; 1
    1a54:	99 f5       	brne	.+102    	; 0x1abc <Nixie_Loop+0x190>
    1a56:	09 c0       	rjmp	.+18     	; 0x1a6a <Nixie_Loop+0x13e>
    1a58:	c1 11       	cpse	r28, r1
    1a5a:	12 c0       	rjmp	.+36     	; 0x1a80 <Nixie_Loop+0x154>
    1a5c:	80 91 be 01 	lds	r24, 0x01BE	; 0x8001be <N_Clock+0x3e>
    1a60:	90 91 bf 01 	lds	r25, 0x01BF	; 0x8001bf <N_Clock+0x3f>
    1a64:	27 c0       	rjmp	.+78     	; 0x1ab4 <Nixie_Loop+0x188>
    1a66:	cc 23       	and	r28, r28
    1a68:	49 f1       	breq	.+82     	; 0x1abc <Nixie_Loop+0x190>
    1a6a:	20 91 b2 01 	lds	r18, 0x01B2	; 0x8001b2 <N_Clock+0x32>
    1a6e:	30 91 b3 01 	lds	r19, 0x01B3	; 0x8001b3 <N_Clock+0x33>
    1a72:	80 91 b4 01 	lds	r24, 0x01B4	; 0x8001b4 <N_Clock+0x34>
    1a76:	90 91 b5 01 	lds	r25, 0x01B5	; 0x8001b5 <N_Clock+0x35>
    1a7a:	28 17       	cp	r18, r24
    1a7c:	39 07       	cpc	r19, r25
    1a7e:	70 f7       	brcc	.-36     	; 0x1a5c <Nixie_Loop+0x130>
    1a80:	80 91 c0 01 	lds	r24, 0x01C0	; 0x8001c0 <N_Clock+0x40>
    1a84:	90 91 c1 01 	lds	r25, 0x01C1	; 0x8001c1 <N_Clock+0x41>
    1a88:	89 2b       	or	r24, r25
    1a8a:	51 f0       	breq	.+20     	; 0x1aa0 <Nixie_Loop+0x174>
    1a8c:	0e 94 75 13 	call	0x26ea	; 0x26ea <Timer_Pulse_1s>
    1a90:	31 e0       	ldi	r19, 0x01	; 1
    1a92:	20 e0       	ldi	r18, 0x00	; 0
    1a94:	81 11       	cpse	r24, r1
    1a96:	01 c0       	rjmp	.+2      	; 0x1a9a <Nixie_Loop+0x16e>
    1a98:	30 e0       	ldi	r19, 0x00	; 0
    1a9a:	83 2f       	mov	r24, r19
    1a9c:	92 2f       	mov	r25, r18
    1a9e:	02 c0       	rjmp	.+4      	; 0x1aa4 <Nixie_Loop+0x178>
    1aa0:	80 e0       	ldi	r24, 0x00	; 0
    1aa2:	90 e0       	ldi	r25, 0x00	; 0
    1aa4:	20 91 c0 01 	lds	r18, 0x01C0	; 0x8001c0 <N_Clock+0x40>
    1aa8:	30 91 c1 01 	lds	r19, 0x01C1	; 0x8001c1 <N_Clock+0x41>
    1aac:	a9 01       	movw	r20, r18
    1aae:	48 1b       	sub	r20, r24
    1ab0:	59 0b       	sbc	r21, r25
    1ab2:	ca 01       	movw	r24, r20
    1ab4:	90 93 c1 01 	sts	0x01C1, r25	; 0x8001c1 <N_Clock+0x41>
    1ab8:	80 93 c0 01 	sts	0x01C0, r24	; 0x8001c0 <N_Clock+0x40>
    1abc:	80 91 a2 01 	lds	r24, 0x01A2	; 0x8001a2 <N_Clock+0x22>
    1ac0:	81 30       	cpi	r24, 0x01	; 1
    1ac2:	39 f0       	breq	.+14     	; 0x1ad2 <Nixie_Loop+0x1a6>
    1ac4:	98 f1       	brcs	.+102    	; 0x1b2c <Nixie_Loop+0x200>
    1ac6:	82 30       	cpi	r24, 0x02	; 2
    1ac8:	29 f1       	breq	.+74     	; 0x1b14 <Nixie_Loop+0x1e8>
    1aca:	84 30       	cpi	r24, 0x04	; 4
    1acc:	09 f4       	brne	.+2      	; 0x1ad0 <Nixie_Loop+0x1a4>
    1ace:	78 c0       	rjmp	.+240    	; 0x1bc0 <Nixie_Loop+0x294>
    1ad0:	80 c0       	rjmp	.+256    	; 0x1bd2 <Nixie_Loop+0x2a6>
    1ad2:	80 91 c0 01 	lds	r24, 0x01C0	; 0x8001c0 <N_Clock+0x40>
    1ad6:	90 91 c1 01 	lds	r25, 0x01C1	; 0x8001c1 <N_Clock+0x41>
    1ada:	89 2b       	or	r24, r25
    1adc:	49 f4       	brne	.+18     	; 0x1af0 <Nixie_Loop+0x1c4>
    1ade:	8a e0       	ldi	r24, 0x0A	; 10
    1ae0:	90 e0       	ldi	r25, 0x00	; 0
    1ae2:	90 93 c1 01 	sts	0x01C1, r25	; 0x8001c1 <N_Clock+0x41>
    1ae6:	80 93 c0 01 	sts	0x01C0, r24	; 0x8001c0 <N_Clock+0x40>
    1aea:	10 92 a2 01 	sts	0x01A2, r1	; 0x8001a2 <N_Clock+0x22>
    1aee:	71 c0       	rjmp	.+226    	; 0x1bd2 <Nixie_Loop+0x2a6>
    1af0:	80 91 aa 01 	lds	r24, 0x01AA	; 0x8001aa <N_Clock+0x2a>
    1af4:	88 23       	and	r24, r24
    1af6:	09 f4       	brne	.+2      	; 0x1afa <Nixie_Loop+0x1ce>
    1af8:	6c c0       	rjmp	.+216    	; 0x1bd2 <Nixie_Loop+0x2a6>
    1afa:	80 91 ad 01 	lds	r24, 0x01AD	; 0x8001ad <N_Clock+0x2d>
    1afe:	88 23       	and	r24, r24
    1b00:	09 f4       	brne	.+2      	; 0x1b04 <Nixie_Loop+0x1d8>
    1b02:	67 c0       	rjmp	.+206    	; 0x1bd2 <Nixie_Loop+0x2a6>
    1b04:	90 91 ac 01 	lds	r25, 0x01AC	; 0x8001ac <N_Clock+0x2c>
    1b08:	91 11       	cpse	r25, r1
    1b0a:	63 c0       	rjmp	.+198    	; 0x1bd2 <Nixie_Loop+0x2a6>
    1b0c:	80 93 ae 01 	sts	0x01AE, r24	; 0x8001ae <N_Clock+0x2e>
    1b10:	82 e0       	ldi	r24, 0x02	; 2
    1b12:	5d c0       	rjmp	.+186    	; 0x1bce <Nixie_Loop+0x2a2>
    1b14:	80 91 ab 01 	lds	r24, 0x01AB	; 0x8001ab <N_Clock+0x2b>
    1b18:	88 23       	and	r24, r24
    1b1a:	09 f4       	brne	.+2      	; 0x1b1e <Nixie_Loop+0x1f2>
    1b1c:	5a c0       	rjmp	.+180    	; 0x1bd2 <Nixie_Loop+0x2a6>
    1b1e:	90 91 ae 01 	lds	r25, 0x01AE	; 0x8001ae <N_Clock+0x2e>
    1b22:	91 11       	cpse	r25, r1
    1b24:	56 c0       	rjmp	.+172    	; 0x1bd2 <Nixie_Loop+0x2a6>
    1b26:	80 93 ac 01 	sts	0x01AC, r24	; 0x8001ac <N_Clock+0x2c>
    1b2a:	50 c0       	rjmp	.+160    	; 0x1bcc <Nixie_Loop+0x2a0>
    1b2c:	20 91 b4 01 	lds	r18, 0x01B4	; 0x8001b4 <N_Clock+0x34>
    1b30:	30 91 b5 01 	lds	r19, 0x01B5	; 0x8001b5 <N_Clock+0x35>
    1b34:	80 91 b0 01 	lds	r24, 0x01B0	; 0x8001b0 <N_Clock+0x30>
    1b38:	90 91 b1 01 	lds	r25, 0x01B1	; 0x8001b1 <N_Clock+0x31>
    1b3c:	28 17       	cp	r18, r24
    1b3e:	39 07       	cpc	r19, r25
    1b40:	d8 f4       	brcc	.+54     	; 0x1b78 <Nixie_Loop+0x24c>
    1b42:	80 91 c0 01 	lds	r24, 0x01C0	; 0x8001c0 <N_Clock+0x40>
    1b46:	90 91 c1 01 	lds	r25, 0x01C1	; 0x8001c1 <N_Clock+0x41>
    1b4a:	89 2b       	or	r24, r25
    1b4c:	51 f0       	breq	.+20     	; 0x1b62 <Nixie_Loop+0x236>
    1b4e:	0e 94 75 13 	call	0x26ea	; 0x26ea <Timer_Pulse_1s>
    1b52:	31 e0       	ldi	r19, 0x01	; 1
    1b54:	20 e0       	ldi	r18, 0x00	; 0
    1b56:	81 11       	cpse	r24, r1
    1b58:	01 c0       	rjmp	.+2      	; 0x1b5c <Nixie_Loop+0x230>
    1b5a:	30 e0       	ldi	r19, 0x00	; 0
    1b5c:	83 2f       	mov	r24, r19
    1b5e:	92 2f       	mov	r25, r18
    1b60:	02 c0       	rjmp	.+4      	; 0x1b66 <Nixie_Loop+0x23a>
    1b62:	80 e0       	ldi	r24, 0x00	; 0
    1b64:	90 e0       	ldi	r25, 0x00	; 0
    1b66:	20 91 c0 01 	lds	r18, 0x01C0	; 0x8001c0 <N_Clock+0x40>
    1b6a:	30 91 c1 01 	lds	r19, 0x01C1	; 0x8001c1 <N_Clock+0x41>
    1b6e:	a9 01       	movw	r20, r18
    1b70:	48 1b       	sub	r20, r24
    1b72:	59 0b       	sbc	r21, r25
    1b74:	ca 01       	movw	r24, r20
    1b76:	04 c0       	rjmp	.+8      	; 0x1b80 <Nixie_Loop+0x254>
    1b78:	80 91 be 01 	lds	r24, 0x01BE	; 0x8001be <N_Clock+0x3e>
    1b7c:	90 91 bf 01 	lds	r25, 0x01BF	; 0x8001bf <N_Clock+0x3f>
    1b80:	90 93 c1 01 	sts	0x01C1, r25	; 0x8001c1 <N_Clock+0x41>
    1b84:	80 93 c0 01 	sts	0x01C0, r24	; 0x8001c0 <N_Clock+0x40>
    1b88:	31 9b       	sbis	0x06, 1	; 6
    1b8a:	20 c0       	rjmp	.+64     	; 0x1bcc <Nixie_Loop+0x2a0>
    1b8c:	32 9b       	sbis	0x06, 2	; 6
    1b8e:	1e c0       	rjmp	.+60     	; 0x1bcc <Nixie_Loop+0x2a0>
    1b90:	80 91 af 01 	lds	r24, 0x01AF	; 0x8001af <N_Clock+0x2f>
    1b94:	81 30       	cpi	r24, 0x01	; 1
    1b96:	39 f4       	brne	.+14     	; 0x1ba6 <Nixie_Loop+0x27a>
    1b98:	80 91 c0 01 	lds	r24, 0x01C0	; 0x8001c0 <N_Clock+0x40>
    1b9c:	90 91 c1 01 	lds	r25, 0x01C1	; 0x8001c1 <N_Clock+0x41>
    1ba0:	89 2b       	or	r24, r25
    1ba2:	a1 f0       	breq	.+40     	; 0x1bcc <Nixie_Loop+0x2a0>
    1ba4:	16 c0       	rjmp	.+44     	; 0x1bd2 <Nixie_Loop+0x2a6>
    1ba6:	82 30       	cpi	r24, 0x02	; 2
    1ba8:	41 f0       	breq	.+16     	; 0x1bba <Nixie_Loop+0x28e>
    1baa:	83 30       	cpi	r24, 0x03	; 3
    1bac:	91 f4       	brne	.+36     	; 0x1bd2 <Nixie_Loop+0x2a6>
    1bae:	80 91 c0 01 	lds	r24, 0x01C0	; 0x8001c0 <N_Clock+0x40>
    1bb2:	90 91 c1 01 	lds	r25, 0x01C1	; 0x8001c1 <N_Clock+0x41>
    1bb6:	89 2b       	or	r24, r25
    1bb8:	61 f4       	brne	.+24     	; 0x1bd2 <Nixie_Loop+0x2a6>
    1bba:	cc 23       	and	r28, r28
    1bbc:	39 f0       	breq	.+14     	; 0x1bcc <Nixie_Loop+0x2a0>
    1bbe:	09 c0       	rjmp	.+18     	; 0x1bd2 <Nixie_Loop+0x2a6>
    1bc0:	80 91 88 01 	lds	r24, 0x0188	; 0x800188 <N_Clock+0x8>
    1bc4:	8b 30       	cpi	r24, 0x0B	; 11
    1bc6:	28 f0       	brcs	.+10     	; 0x1bd2 <Nixie_Loop+0x2a6>
    1bc8:	10 92 88 01 	sts	0x0188, r1	; 0x800188 <N_Clock+0x8>
    1bcc:	81 e0       	ldi	r24, 0x01	; 1
    1bce:	80 93 a2 01 	sts	0x01A2, r24	; 0x8001a2 <N_Clock+0x22>
    1bd2:	80 91 a2 01 	lds	r24, 0x01A2	; 0x8001a2 <N_Clock+0x22>
    1bd6:	f7 c1       	rjmp	.+1006   	; 0x1fc6 <Nixie_Loop+0x69a>
    1bd8:	31 9b       	sbis	0x06, 1	; 6
    1bda:	04 c0       	rjmp	.+8      	; 0x1be4 <Nixie_Loop+0x2b8>
    1bdc:	32 9b       	sbis	0x06, 2	; 6
    1bde:	02 c0       	rjmp	.+4      	; 0x1be4 <Nixie_Loop+0x2b8>
    1be0:	8a e0       	ldi	r24, 0x0A	; 10
    1be2:	3f c0       	rjmp	.+126    	; 0x1c62 <Nixie_Loop+0x336>
    1be4:	86 b1       	in	r24, 0x06	; 6
    1be6:	e0 91 a3 01 	lds	r30, 0x01A3	; 0x8001a3 <N_Clock+0x23>
    1bea:	32 9b       	sbis	0x06, 2	; 6
    1bec:	3d c0       	rjmp	.+122    	; 0x1c68 <Nixie_Loop+0x33c>
    1bee:	80 91 7e 01 	lds	r24, 0x017E	; 0x80017e <Debounce+0x1>
    1bf2:	81 11       	cpse	r24, r1
    1bf4:	39 c0       	rjmp	.+114    	; 0x1c68 <Nixie_Loop+0x33c>
    1bf6:	90 91 e1 01 	lds	r25, 0x01E1	; 0x8001e1 <N_Clock+0x61>
    1bfa:	96 30       	cpi	r25, 0x06	; 6
    1bfc:	18 f4       	brcc	.+6      	; 0x1c04 <Nixie_Loop+0x2d8>
    1bfe:	82 e0       	ldi	r24, 0x02	; 2
    1c00:	80 93 a5 01 	sts	0x01A5, r24	; 0x8001a5 <N_Clock+0x25>
    1c04:	81 e0       	ldi	r24, 0x01	; 1
    1c06:	8e 0f       	add	r24, r30
    1c08:	80 93 a3 01 	sts	0x01A3, r24	; 0x8001a3 <N_Clock+0x23>
    1c0c:	81 30       	cpi	r24, 0x01	; 1
    1c0e:	21 f4       	brne	.+8      	; 0x1c18 <Nixie_Loop+0x2ec>
    1c10:	96 30       	cpi	r25, 0x06	; 6
    1c12:	30 f5       	brcc	.+76     	; 0x1c60 <Nixie_Loop+0x334>
    1c14:	82 e0       	ldi	r24, 0x02	; 2
    1c16:	03 c0       	rjmp	.+6      	; 0x1c1e <Nixie_Loop+0x2f2>
    1c18:	84 30       	cpi	r24, 0x04	; 4
    1c1a:	21 f4       	brne	.+8      	; 0x1c24 <Nixie_Loop+0x2f8>
    1c1c:	8b e0       	ldi	r24, 0x0B	; 11
    1c1e:	80 93 a3 01 	sts	0x01A3, r24	; 0x8001a3 <N_Clock+0x23>
    1c22:	1e c0       	rjmp	.+60     	; 0x1c60 <Nixie_Loop+0x334>
    1c24:	8e 30       	cpi	r24, 0x0E	; 14
    1c26:	11 f4       	brne	.+4      	; 0x1c2c <Nixie_Loop+0x300>
    1c28:	84 e1       	ldi	r24, 0x14	; 20
    1c2a:	f9 cf       	rjmp	.-14     	; 0x1c1e <Nixie_Loop+0x2f2>
    1c2c:	87 31       	cpi	r24, 0x17	; 23
    1c2e:	11 f4       	brne	.+4      	; 0x1c34 <Nixie_Loop+0x308>
    1c30:	8e e1       	ldi	r24, 0x1E	; 30
    1c32:	f5 cf       	rjmp	.-22     	; 0x1c1e <Nixie_Loop+0x2f2>
    1c34:	8f 31       	cpi	r24, 0x1F	; 31
    1c36:	51 f4       	brne	.+20     	; 0x1c4c <Nixie_Loop+0x320>
    1c38:	80 91 af 01 	lds	r24, 0x01AF	; 0x8001af <N_Clock+0x2f>
    1c3c:	82 30       	cpi	r24, 0x02	; 2
    1c3e:	11 f4       	brne	.+4      	; 0x1c44 <Nixie_Loop+0x318>
    1c40:	81 e2       	ldi	r24, 0x21	; 33
    1c42:	ed cf       	rjmp	.-38     	; 0x1c1e <Nixie_Loop+0x2f2>
    1c44:	81 11       	cpse	r24, r1
    1c46:	0c c0       	rjmp	.+24     	; 0x1c60 <Nixie_Loop+0x334>
    1c48:	88 e2       	ldi	r24, 0x28	; 40
    1c4a:	e9 cf       	rjmp	.-46     	; 0x1c1e <Nixie_Loop+0x2f2>
    1c4c:	86 32       	cpi	r24, 0x26	; 38
    1c4e:	e1 f3       	breq	.-8      	; 0x1c48 <Nixie_Loop+0x31c>
    1c50:	8b 32       	cpi	r24, 0x2B	; 43
    1c52:	11 f4       	brne	.+4      	; 0x1c58 <Nixie_Loop+0x32c>
    1c54:	82 e3       	ldi	r24, 0x32	; 50
    1c56:	e3 cf       	rjmp	.-58     	; 0x1c1e <Nixie_Loop+0x2f2>
    1c58:	84 33       	cpi	r24, 0x34	; 52
    1c5a:	11 f4       	brne	.+4      	; 0x1c60 <Nixie_Loop+0x334>
    1c5c:	10 92 a3 01 	sts	0x01A3, r1	; 0x8001a3 <N_Clock+0x23>
    1c60:	8e e1       	ldi	r24, 0x1E	; 30
    1c62:	80 93 7e 01 	sts	0x017E, r24	; 0x80017e <Debounce+0x1>
    1c66:	3b c1       	rjmp	.+630    	; 0x1ede <Nixie_Loop+0x5b2>
    1c68:	31 9b       	sbis	0x06, 1	; 6
    1c6a:	39 c1       	rjmp	.+626    	; 0x1ede <Nixie_Loop+0x5b2>
    1c6c:	86 b1       	in	r24, 0x06	; 6
    1c6e:	80 91 7e 01 	lds	r24, 0x017E	; 0x80017e <Debounce+0x1>
    1c72:	81 11       	cpse	r24, r1
    1c74:	34 c1       	rjmp	.+616    	; 0x1ede <Nixie_Loop+0x5b2>
    1c76:	f0 90 e2 01 	lds	r15, 0x01E2	; 0x8001e2 <RTC>
    1c7a:	10 91 e3 01 	lds	r17, 0x01E3	; 0x8001e3 <RTC+0x1>
    1c7e:	d0 91 e4 01 	lds	r29, 0x01E4	; 0x8001e4 <RTC+0x2>
    1c82:	c0 91 e5 01 	lds	r28, 0x01E5	; 0x8001e5 <RTC+0x3>
    1c86:	00 91 e6 01 	lds	r16, 0x01E6	; 0x8001e6 <RTC+0x4>
    1c8a:	e0 90 e7 01 	lds	r14, 0x01E7	; 0x8001e7 <RTC+0x5>
    1c8e:	8e 2f       	mov	r24, r30
    1c90:	90 e0       	ldi	r25, 0x00	; 0
    1c92:	fc 01       	movw	r30, r24
    1c94:	31 97       	sbiw	r30, 0x01	; 1
    1c96:	e3 33       	cpi	r30, 0x33	; 51
    1c98:	f1 05       	cpc	r31, r1
    1c9a:	08 f0       	brcs	.+2      	; 0x1c9e <Nixie_Loop+0x372>
    1c9c:	17 c1       	rjmp	.+558    	; 0x1ecc <Nixie_Loop+0x5a0>
    1c9e:	ec 5c       	subi	r30, 0xCC	; 204
    1ca0:	ff 4f       	sbci	r31, 0xFF	; 255
    1ca2:	0c 94 bd 13 	jmp	0x277a	; 0x277a <__tablejump2__>
    1ca6:	f3 94       	inc	r15
    1ca8:	5b e3       	ldi	r21, 0x3B	; 59
    1caa:	5f 15       	cp	r21, r15
    1cac:	08 f0       	brcs	.+2      	; 0x1cb0 <Nixie_Loop+0x384>
    1cae:	0e c1       	rjmp	.+540    	; 0x1ecc <Nixie_Loop+0x5a0>
    1cb0:	f1 2c       	mov	r15, r1
    1cb2:	0c c1       	rjmp	.+536    	; 0x1ecc <Nixie_Loop+0x5a0>
    1cb4:	1f 5f       	subi	r17, 0xFF	; 255
    1cb6:	1c 33       	cpi	r17, 0x3C	; 60
    1cb8:	08 f4       	brcc	.+2      	; 0x1cbc <Nixie_Loop+0x390>
    1cba:	08 c1       	rjmp	.+528    	; 0x1ecc <Nixie_Loop+0x5a0>
    1cbc:	10 e0       	ldi	r17, 0x00	; 0
    1cbe:	06 c1       	rjmp	.+524    	; 0x1ecc <Nixie_Loop+0x5a0>
    1cc0:	df 5f       	subi	r29, 0xFF	; 255
    1cc2:	0e 94 2a 11 	call	0x2254	; 0x2254 <RTC_Get_TWLF>
    1cc6:	88 23       	and	r24, r24
    1cc8:	89 f0       	breq	.+34     	; 0x1cec <Nixie_Loop+0x3c0>
    1cca:	0e 94 41 11 	call	0x2282	; 0x2282 <RTC_Get_PM>
    1cce:	88 23       	and	r24, r24
    1cd0:	29 f0       	breq	.+10     	; 0x1cdc <Nixie_Loop+0x3b0>
    1cd2:	dc 30       	cpi	r29, 0x0C	; 12
    1cd4:	08 f4       	brcc	.+2      	; 0x1cd8 <Nixie_Loop+0x3ac>
    1cd6:	fa c0       	rjmp	.+500    	; 0x1ecc <Nixie_Loop+0x5a0>
    1cd8:	80 e0       	ldi	r24, 0x00	; 0
    1cda:	0c c0       	rjmp	.+24     	; 0x1cf4 <Nixie_Loop+0x3c8>
    1cdc:	dd 30       	cpi	r29, 0x0D	; 13
    1cde:	08 f4       	brcc	.+2      	; 0x1ce2 <Nixie_Loop+0x3b6>
    1ce0:	f5 c0       	rjmp	.+490    	; 0x1ecc <Nixie_Loop+0x5a0>
    1ce2:	81 e0       	ldi	r24, 0x01	; 1
    1ce4:	0e 94 34 11 	call	0x2268	; 0x2268 <RTC_Set_PM>
    1ce8:	d1 e0       	ldi	r29, 0x01	; 1
    1cea:	f0 c0       	rjmp	.+480    	; 0x1ecc <Nixie_Loop+0x5a0>
    1cec:	d8 31       	cpi	r29, 0x18	; 24
    1cee:	08 f4       	brcc	.+2      	; 0x1cf2 <Nixie_Loop+0x3c6>
    1cf0:	ed c0       	rjmp	.+474    	; 0x1ecc <Nixie_Loop+0x5a0>
    1cf2:	81 e0       	ldi	r24, 0x01	; 1
    1cf4:	0e 94 1d 11 	call	0x223a	; 0x223a <RTC_Set_TWLF>
    1cf8:	80 e0       	ldi	r24, 0x00	; 0
    1cfa:	0e 94 34 11 	call	0x2268	; 0x2268 <RTC_Set_PM>
    1cfe:	d0 e0       	ldi	r29, 0x00	; 0
    1d00:	e5 c0       	rjmp	.+458    	; 0x1ecc <Nixie_Loop+0x5a0>
    1d02:	e3 94       	inc	r14
    1d04:	83 e6       	ldi	r24, 0x63	; 99
    1d06:	8e 15       	cp	r24, r14
    1d08:	08 f0       	brcs	.+2      	; 0x1d0c <Nixie_Loop+0x3e0>
    1d0a:	e0 c0       	rjmp	.+448    	; 0x1ecc <Nixie_Loop+0x5a0>
    1d0c:	e1 2c       	mov	r14, r1
    1d0e:	de c0       	rjmp	.+444    	; 0x1ecc <Nixie_Loop+0x5a0>
    1d10:	0f 5f       	subi	r16, 0xFF	; 255
    1d12:	0d 30       	cpi	r16, 0x0D	; 13
    1d14:	08 f4       	brcc	.+2      	; 0x1d18 <Nixie_Loop+0x3ec>
    1d16:	da c0       	rjmp	.+436    	; 0x1ecc <Nixie_Loop+0x5a0>
    1d18:	01 e0       	ldi	r16, 0x01	; 1
    1d1a:	d8 c0       	rjmp	.+432    	; 0x1ecc <Nixie_Loop+0x5a0>
    1d1c:	cf 5f       	subi	r28, 0xFF	; 255
    1d1e:	02 30       	cpi	r16, 0x02	; 2
    1d20:	09 f0       	breq	.+2      	; 0x1d24 <Nixie_Loop+0x3f8>
    1d22:	ce c0       	rjmp	.+412    	; 0x1ec0 <Nixie_Loop+0x594>
    1d24:	cd 31       	cpi	r28, 0x1D	; 29
    1d26:	08 f4       	brcc	.+2      	; 0x1d2a <Nixie_Loop+0x3fe>
    1d28:	d1 c0       	rjmp	.+418    	; 0x1ecc <Nixie_Loop+0x5a0>
    1d2a:	0e 94 55 11 	call	0x22aa	; 0x22aa <RTC_not_leap>
    1d2e:	81 11       	cpse	r24, r1
    1d30:	cc c0       	rjmp	.+408    	; 0x1eca <Nixie_Loop+0x59e>
    1d32:	d7 c1       	rjmp	.+942    	; 0x20e2 <Nixie_Loop+0x7b6>
    1d34:	80 91 aa 01 	lds	r24, 0x01AA	; 0x8001aa <N_Clock+0x2a>
    1d38:	88 23       	and	r24, r24
    1d3a:	19 f0       	breq	.+6      	; 0x1d42 <Nixie_Loop+0x416>
    1d3c:	10 92 aa 01 	sts	0x01AA, r1	; 0x8001aa <N_Clock+0x2a>
    1d40:	c5 c0       	rjmp	.+394    	; 0x1ecc <Nixie_Loop+0x5a0>
    1d42:	81 e0       	ldi	r24, 0x01	; 1
    1d44:	80 93 aa 01 	sts	0x01AA, r24	; 0x8001aa <N_Clock+0x2a>
    1d48:	c1 c0       	rjmp	.+386    	; 0x1ecc <Nixie_Loop+0x5a0>
    1d4a:	80 91 ad 01 	lds	r24, 0x01AD	; 0x8001ad <N_Clock+0x2d>
    1d4e:	8f 5f       	subi	r24, 0xFF	; 255
    1d50:	80 93 ad 01 	sts	0x01AD, r24	; 0x8001ad <N_Clock+0x2d>
    1d54:	bb c0       	rjmp	.+374    	; 0x1ecc <Nixie_Loop+0x5a0>
    1d56:	80 91 ab 01 	lds	r24, 0x01AB	; 0x8001ab <N_Clock+0x2b>
    1d5a:	8f 5f       	subi	r24, 0xFF	; 255
    1d5c:	80 93 ab 01 	sts	0x01AB, r24	; 0x8001ab <N_Clock+0x2b>
    1d60:	b5 c0       	rjmp	.+362    	; 0x1ecc <Nixie_Loop+0x5a0>
    1d62:	80 91 af 01 	lds	r24, 0x01AF	; 0x8001af <N_Clock+0x2f>
    1d66:	8f 5f       	subi	r24, 0xFF	; 255
    1d68:	84 30       	cpi	r24, 0x04	; 4
    1d6a:	18 f4       	brcc	.+6      	; 0x1d72 <Nixie_Loop+0x446>
    1d6c:	80 93 af 01 	sts	0x01AF, r24	; 0x8001af <N_Clock+0x2f>
    1d70:	ad c0       	rjmp	.+346    	; 0x1ecc <Nixie_Loop+0x5a0>
    1d72:	10 92 af 01 	sts	0x01AF, r1	; 0x8001af <N_Clock+0x2f>
    1d76:	aa c0       	rjmp	.+340    	; 0x1ecc <Nixie_Loop+0x5a0>
    1d78:	80 91 b4 01 	lds	r24, 0x01B4	; 0x8001b4 <N_Clock+0x34>
    1d7c:	90 91 b5 01 	lds	r25, 0x01B5	; 0x8001b5 <N_Clock+0x35>
    1d80:	90 93 b3 01 	sts	0x01B3, r25	; 0x8001b3 <N_Clock+0x33>
    1d84:	80 93 b2 01 	sts	0x01B2, r24	; 0x8001b2 <N_Clock+0x32>
    1d88:	a1 c0       	rjmp	.+322    	; 0x1ecc <Nixie_Loop+0x5a0>
    1d8a:	80 91 b4 01 	lds	r24, 0x01B4	; 0x8001b4 <N_Clock+0x34>
    1d8e:	90 91 b5 01 	lds	r25, 0x01B5	; 0x8001b5 <N_Clock+0x35>
    1d92:	90 93 b1 01 	sts	0x01B1, r25	; 0x8001b1 <N_Clock+0x31>
    1d96:	80 93 b0 01 	sts	0x01B0, r24	; 0x8001b0 <N_Clock+0x30>
    1d9a:	98 c0       	rjmp	.+304    	; 0x1ecc <Nixie_Loop+0x5a0>
    1d9c:	80 91 bb 01 	lds	r24, 0x01BB	; 0x8001bb <N_Clock+0x3b>
    1da0:	8f 5f       	subi	r24, 0xFF	; 255
    1da2:	8c 33       	cpi	r24, 0x3C	; 60
    1da4:	18 f4       	brcc	.+6      	; 0x1dac <Nixie_Loop+0x480>
    1da6:	80 93 bb 01 	sts	0x01BB, r24	; 0x8001bb <N_Clock+0x3b>
    1daa:	90 c0       	rjmp	.+288    	; 0x1ecc <Nixie_Loop+0x5a0>
    1dac:	10 92 bb 01 	sts	0x01BB, r1	; 0x8001bb <N_Clock+0x3b>
    1db0:	8d c0       	rjmp	.+282    	; 0x1ecc <Nixie_Loop+0x5a0>
    1db2:	80 91 bc 01 	lds	r24, 0x01BC	; 0x8001bc <N_Clock+0x3c>
    1db6:	8f 5f       	subi	r24, 0xFF	; 255
    1db8:	80 93 bc 01 	sts	0x01BC, r24	; 0x8001bc <N_Clock+0x3c>
    1dbc:	90 91 ea 01 	lds	r25, 0x01EA	; 0x8001ea <RTC+0x8>
    1dc0:	99 23       	and	r25, r25
    1dc2:	59 f0       	breq	.+22     	; 0x1dda <Nixie_Loop+0x4ae>
    1dc4:	90 91 eb 01 	lds	r25, 0x01EB	; 0x8001eb <RTC+0x9>
    1dc8:	99 23       	and	r25, r25
    1dca:	21 f0       	breq	.+8      	; 0x1dd4 <Nixie_Loop+0x4a8>
    1dcc:	8c 30       	cpi	r24, 0x0C	; 12
    1dce:	08 f4       	brcc	.+2      	; 0x1dd2 <Nixie_Loop+0x4a6>
    1dd0:	7d c0       	rjmp	.+250    	; 0x1ecc <Nixie_Loop+0x5a0>
    1dd2:	06 c0       	rjmp	.+12     	; 0x1de0 <Nixie_Loop+0x4b4>
    1dd4:	8d 30       	cpi	r24, 0x0D	; 13
    1dd6:	20 f4       	brcc	.+8      	; 0x1de0 <Nixie_Loop+0x4b4>
    1dd8:	79 c0       	rjmp	.+242    	; 0x1ecc <Nixie_Loop+0x5a0>
    1dda:	88 31       	cpi	r24, 0x18	; 24
    1ddc:	08 f4       	brcc	.+2      	; 0x1de0 <Nixie_Loop+0x4b4>
    1dde:	76 c0       	rjmp	.+236    	; 0x1ecc <Nixie_Loop+0x5a0>
    1de0:	10 92 bc 01 	sts	0x01BC, r1	; 0x8001bc <N_Clock+0x3c>
    1de4:	73 c0       	rjmp	.+230    	; 0x1ecc <Nixie_Loop+0x5a0>
    1de6:	80 91 b7 01 	lds	r24, 0x01B7	; 0x8001b7 <N_Clock+0x37>
    1dea:	8f 5f       	subi	r24, 0xFF	; 255
    1dec:	8c 33       	cpi	r24, 0x3C	; 60
    1dee:	18 f4       	brcc	.+6      	; 0x1df6 <Nixie_Loop+0x4ca>
    1df0:	80 93 b7 01 	sts	0x01B7, r24	; 0x8001b7 <N_Clock+0x37>
    1df4:	6b c0       	rjmp	.+214    	; 0x1ecc <Nixie_Loop+0x5a0>
    1df6:	10 92 b7 01 	sts	0x01B7, r1	; 0x8001b7 <N_Clock+0x37>
    1dfa:	68 c0       	rjmp	.+208    	; 0x1ecc <Nixie_Loop+0x5a0>
    1dfc:	80 91 b8 01 	lds	r24, 0x01B8	; 0x8001b8 <N_Clock+0x38>
    1e00:	8f 5f       	subi	r24, 0xFF	; 255
    1e02:	80 93 b8 01 	sts	0x01B8, r24	; 0x8001b8 <N_Clock+0x38>
    1e06:	90 91 ea 01 	lds	r25, 0x01EA	; 0x8001ea <RTC+0x8>
    1e0a:	99 23       	and	r25, r25
    1e0c:	59 f0       	breq	.+22     	; 0x1e24 <Nixie_Loop+0x4f8>
    1e0e:	90 91 eb 01 	lds	r25, 0x01EB	; 0x8001eb <RTC+0x9>
    1e12:	99 23       	and	r25, r25
    1e14:	21 f0       	breq	.+8      	; 0x1e1e <Nixie_Loop+0x4f2>
    1e16:	8c 30       	cpi	r24, 0x0C	; 12
    1e18:	08 f4       	brcc	.+2      	; 0x1e1c <Nixie_Loop+0x4f0>
    1e1a:	58 c0       	rjmp	.+176    	; 0x1ecc <Nixie_Loop+0x5a0>
    1e1c:	06 c0       	rjmp	.+12     	; 0x1e2a <Nixie_Loop+0x4fe>
    1e1e:	8d 30       	cpi	r24, 0x0D	; 13
    1e20:	20 f4       	brcc	.+8      	; 0x1e2a <Nixie_Loop+0x4fe>
    1e22:	54 c0       	rjmp	.+168    	; 0x1ecc <Nixie_Loop+0x5a0>
    1e24:	88 31       	cpi	r24, 0x18	; 24
    1e26:	08 f4       	brcc	.+2      	; 0x1e2a <Nixie_Loop+0x4fe>
    1e28:	51 c0       	rjmp	.+162    	; 0x1ecc <Nixie_Loop+0x5a0>
    1e2a:	10 92 b8 01 	sts	0x01B8, r1	; 0x8001b8 <N_Clock+0x38>
    1e2e:	4e c0       	rjmp	.+156    	; 0x1ecc <Nixie_Loop+0x5a0>
    1e30:	80 91 be 01 	lds	r24, 0x01BE	; 0x8001be <N_Clock+0x3e>
    1e34:	90 91 bf 01 	lds	r25, 0x01BF	; 0x8001bf <N_Clock+0x3f>
    1e38:	01 96       	adiw	r24, 0x01	; 1
    1e3a:	85 36       	cpi	r24, 0x65	; 101
    1e3c:	91 05       	cpc	r25, r1
    1e3e:	28 f4       	brcc	.+10     	; 0x1e4a <Nixie_Loop+0x51e>
    1e40:	90 93 bf 01 	sts	0x01BF, r25	; 0x8001bf <N_Clock+0x3f>
    1e44:	80 93 be 01 	sts	0x01BE, r24	; 0x8001be <N_Clock+0x3e>
    1e48:	41 c0       	rjmp	.+130    	; 0x1ecc <Nixie_Loop+0x5a0>
    1e4a:	10 92 bf 01 	sts	0x01BF, r1	; 0x8001bf <N_Clock+0x3f>
    1e4e:	10 92 be 01 	sts	0x01BE, r1	; 0x8001be <N_Clock+0x3e>
    1e52:	3c c0       	rjmp	.+120    	; 0x1ecc <Nixie_Loop+0x5a0>
    1e54:	80 91 dd 01 	lds	r24, 0x01DD	; 0x8001dd <N_Clock+0x5d>
    1e58:	8f 5f       	subi	r24, 0xFF	; 255
    1e5a:	82 30       	cpi	r24, 0x02	; 2
    1e5c:	18 f4       	brcc	.+6      	; 0x1e64 <Nixie_Loop+0x538>
    1e5e:	80 93 dd 01 	sts	0x01DD, r24	; 0x8001dd <N_Clock+0x5d>
    1e62:	34 c0       	rjmp	.+104    	; 0x1ecc <Nixie_Loop+0x5a0>
    1e64:	10 92 dd 01 	sts	0x01DD, r1	; 0x8001dd <N_Clock+0x5d>
    1e68:	31 c0       	rjmp	.+98     	; 0x1ecc <Nixie_Loop+0x5a0>
    1e6a:	80 91 de 01 	lds	r24, 0x01DE	; 0x8001de <N_Clock+0x5e>
    1e6e:	8f 5f       	subi	r24, 0xFF	; 255
    1e70:	83 30       	cpi	r24, 0x03	; 3
    1e72:	18 f4       	brcc	.+6      	; 0x1e7a <Nixie_Loop+0x54e>
    1e74:	80 93 de 01 	sts	0x01DE, r24	; 0x8001de <N_Clock+0x5e>
    1e78:	29 c0       	rjmp	.+82     	; 0x1ecc <Nixie_Loop+0x5a0>
    1e7a:	10 92 de 01 	sts	0x01DE, r1	; 0x8001de <N_Clock+0x5e>
    1e7e:	26 c0       	rjmp	.+76     	; 0x1ecc <Nixie_Loop+0x5a0>
    1e80:	80 91 df 01 	lds	r24, 0x01DF	; 0x8001df <N_Clock+0x5f>
    1e84:	8f 5f       	subi	r24, 0xFF	; 255
    1e86:	89 3c       	cpi	r24, 0xC9	; 201
    1e88:	18 f4       	brcc	.+6      	; 0x1e90 <Nixie_Loop+0x564>
    1e8a:	80 93 df 01 	sts	0x01DF, r24	; 0x8001df <N_Clock+0x5f>
    1e8e:	1e c0       	rjmp	.+60     	; 0x1ecc <Nixie_Loop+0x5a0>
    1e90:	10 92 df 01 	sts	0x01DF, r1	; 0x8001df <N_Clock+0x5f>
    1e94:	1b c0       	rjmp	.+54     	; 0x1ecc <Nixie_Loop+0x5a0>
    1e96:	80 91 e0 01 	lds	r24, 0x01E0	; 0x8001e0 <N_Clock+0x60>
    1e9a:	8f 5f       	subi	r24, 0xFF	; 255
    1e9c:	82 30       	cpi	r24, 0x02	; 2
    1e9e:	18 f4       	brcc	.+6      	; 0x1ea6 <Nixie_Loop+0x57a>
    1ea0:	80 93 e0 01 	sts	0x01E0, r24	; 0x8001e0 <N_Clock+0x60>
    1ea4:	13 c0       	rjmp	.+38     	; 0x1ecc <Nixie_Loop+0x5a0>
    1ea6:	10 92 e0 01 	sts	0x01E0, r1	; 0x8001e0 <N_Clock+0x60>
    1eaa:	10 c0       	rjmp	.+32     	; 0x1ecc <Nixie_Loop+0x5a0>
    1eac:	80 91 e1 01 	lds	r24, 0x01E1	; 0x8001e1 <N_Clock+0x61>
    1eb0:	85 30       	cpi	r24, 0x05	; 5
    1eb2:	10 f0       	brcs	.+4      	; 0x1eb8 <Nixie_Loop+0x58c>
    1eb4:	84 e0       	ldi	r24, 0x04	; 4
    1eb6:	01 c0       	rjmp	.+2      	; 0x1eba <Nixie_Loop+0x58e>
    1eb8:	86 e0       	ldi	r24, 0x06	; 6
    1eba:	80 93 e1 01 	sts	0x01E1, r24	; 0x8001e1 <N_Clock+0x61>
    1ebe:	06 c0       	rjmp	.+12     	; 0x1ecc <Nixie_Loop+0x5a0>
    1ec0:	cf 31       	cpi	r28, 0x1F	; 31
    1ec2:	20 f0       	brcs	.+8      	; 0x1ecc <Nixie_Loop+0x5a0>
    1ec4:	04 30       	cpi	r16, 0x04	; 4
    1ec6:	09 f0       	breq	.+2      	; 0x1eca <Nixie_Loop+0x59e>
    1ec8:	10 c1       	rjmp	.+544    	; 0x20ea <Nixie_Loop+0x7be>
    1eca:	c1 e0       	ldi	r28, 0x01	; 1
    1ecc:	8e e1       	ldi	r24, 0x1E	; 30
    1ece:	80 93 7e 01 	sts	0x017E, r24	; 0x80017e <Debounce+0x1>
    1ed2:	2c 2f       	mov	r18, r28
    1ed4:	4d 2f       	mov	r20, r29
    1ed6:	61 2f       	mov	r22, r17
    1ed8:	8f 2d       	mov	r24, r15
    1eda:	0e 94 bb 12 	call	0x2576	; 0x2576 <RTC_Set_DateTime>
    1ede:	20 91 a3 01 	lds	r18, 0x01A3	; 0x8001a3 <N_Clock+0x23>
    1ee2:	82 2f       	mov	r24, r18
    1ee4:	90 e0       	ldi	r25, 0x00	; 0
    1ee6:	84 33       	cpi	r24, 0x34	; 52
    1ee8:	91 05       	cpc	r25, r1
    1eea:	08 f0       	brcs	.+2      	; 0x1eee <Nixie_Loop+0x5c2>
    1eec:	63 c0       	rjmp	.+198    	; 0x1fb4 <Nixie_Loop+0x688>
    1eee:	fc 01       	movw	r30, r24
    1ef0:	e9 59       	subi	r30, 0x99	; 153
    1ef2:	ff 4f       	sbci	r31, 0xFF	; 255
    1ef4:	0c 94 bd 13 	jmp	0x277a	; 0x277a <__tablejump2__>
    1ef8:	80 91 80 01 	lds	r24, 0x0180	; 0x800180 <N_Clock>
    1efc:	64 e6       	ldi	r22, 0x64	; 100
    1efe:	0e 94 89 13 	call	0x2712	; 0x2712 <__udivmodqi4>
    1f02:	80 93 9f 01 	sts	0x019F, r24	; 0x80019f <N_Clock+0x1f>
    1f06:	90 93 a0 01 	sts	0x01A0, r25	; 0x8001a0 <N_Clock+0x20>
    1f0a:	56 c0       	rjmp	.+172    	; 0x1fb8 <Nixie_Loop+0x68c>
    1f0c:	10 92 9f 01 	sts	0x019F, r1	; 0x80019f <N_Clock+0x1f>
    1f10:	80 91 aa 01 	lds	r24, 0x01AA	; 0x8001aa <N_Clock+0x2a>
    1f14:	11 c0       	rjmp	.+34     	; 0x1f38 <Nixie_Loop+0x60c>
    1f16:	80 91 ad 01 	lds	r24, 0x01AD	; 0x8001ad <N_Clock+0x2d>
    1f1a:	02 c0       	rjmp	.+4      	; 0x1f20 <Nixie_Loop+0x5f4>
    1f1c:	80 91 ab 01 	lds	r24, 0x01AB	; 0x8001ab <N_Clock+0x2b>
    1f20:	64 e6       	ldi	r22, 0x64	; 100
    1f22:	0e 94 89 13 	call	0x2712	; 0x2712 <__udivmodqi4>
    1f26:	80 93 9f 01 	sts	0x019F, r24	; 0x80019f <N_Clock+0x1f>
    1f2a:	90 93 a0 01 	sts	0x01A0, r25	; 0x8001a0 <N_Clock+0x20>
    1f2e:	ea c0       	rjmp	.+468    	; 0x2104 <Nixie_Loop+0x7d8>
    1f30:	10 92 9f 01 	sts	0x019F, r1	; 0x80019f <N_Clock+0x1f>
    1f34:	80 91 af 01 	lds	r24, 0x01AF	; 0x8001af <N_Clock+0x2f>
    1f38:	80 93 a0 01 	sts	0x01A0, r24	; 0x8001a0 <N_Clock+0x20>
    1f3c:	e3 c0       	rjmp	.+454    	; 0x2104 <Nixie_Loop+0x7d8>
    1f3e:	80 91 b4 01 	lds	r24, 0x01B4	; 0x8001b4 <N_Clock+0x34>
    1f42:	90 91 b5 01 	lds	r25, 0x01B5	; 0x8001b5 <N_Clock+0x35>
    1f46:	64 e6       	ldi	r22, 0x64	; 100
    1f48:	70 e0       	ldi	r23, 0x00	; 0
    1f4a:	0e 94 95 13 	call	0x272a	; 0x272a <__udivmodhi4>
    1f4e:	60 93 9f 01 	sts	0x019F, r22	; 0x80019f <N_Clock+0x1f>
    1f52:	80 93 a0 01 	sts	0x01A0, r24	; 0x8001a0 <N_Clock+0x20>
    1f56:	32 c0       	rjmp	.+100    	; 0x1fbc <Nixie_Loop+0x690>
    1f58:	80 91 bc 01 	lds	r24, 0x01BC	; 0x8001bc <N_Clock+0x3c>
    1f5c:	80 93 9f 01 	sts	0x019F, r24	; 0x80019f <N_Clock+0x1f>
    1f60:	80 91 bb 01 	lds	r24, 0x01BB	; 0x8001bb <N_Clock+0x3b>
    1f64:	e9 cf       	rjmp	.-46     	; 0x1f38 <Nixie_Loop+0x60c>
    1f66:	80 91 b8 01 	lds	r24, 0x01B8	; 0x8001b8 <N_Clock+0x38>
    1f6a:	80 93 9f 01 	sts	0x019F, r24	; 0x80019f <N_Clock+0x1f>
    1f6e:	80 91 b7 01 	lds	r24, 0x01B7	; 0x8001b7 <N_Clock+0x37>
    1f72:	e2 cf       	rjmp	.-60     	; 0x1f38 <Nixie_Loop+0x60c>
    1f74:	80 91 be 01 	lds	r24, 0x01BE	; 0x8001be <N_Clock+0x3e>
    1f78:	90 91 bf 01 	lds	r25, 0x01BF	; 0x8001bf <N_Clock+0x3f>
    1f7c:	64 e6       	ldi	r22, 0x64	; 100
    1f7e:	70 e0       	ldi	r23, 0x00	; 0
    1f80:	0e 94 95 13 	call	0x272a	; 0x272a <__udivmodhi4>
    1f84:	60 93 9f 01 	sts	0x019F, r22	; 0x80019f <N_Clock+0x1f>
    1f88:	d7 cf       	rjmp	.-82     	; 0x1f38 <Nixie_Loop+0x60c>
    1f8a:	80 91 dd 01 	lds	r24, 0x01DD	; 0x8001dd <N_Clock+0x5d>
    1f8e:	c8 cf       	rjmp	.-112    	; 0x1f20 <Nixie_Loop+0x5f4>
    1f90:	80 91 de 01 	lds	r24, 0x01DE	; 0x8001de <N_Clock+0x5e>
    1f94:	c5 cf       	rjmp	.-118    	; 0x1f20 <Nixie_Loop+0x5f4>
    1f96:	80 91 df 01 	lds	r24, 0x01DF	; 0x8001df <N_Clock+0x5f>
    1f9a:	c2 cf       	rjmp	.-124    	; 0x1f20 <Nixie_Loop+0x5f4>
    1f9c:	10 92 9f 01 	sts	0x019F, r1	; 0x80019f <N_Clock+0x1f>
    1fa0:	80 91 e0 01 	lds	r24, 0x01E0	; 0x8001e0 <N_Clock+0x60>
    1fa4:	c9 cf       	rjmp	.-110    	; 0x1f38 <Nixie_Loop+0x60c>
    1fa6:	80 91 e1 01 	lds	r24, 0x01E1	; 0x8001e1 <N_Clock+0x61>
    1faa:	80 93 9f 01 	sts	0x019F, r24	; 0x80019f <N_Clock+0x1f>
    1fae:	10 92 a0 01 	sts	0x01A0, r1	; 0x8001a0 <N_Clock+0x20>
    1fb2:	a8 c0       	rjmp	.+336    	; 0x2104 <Nixie_Loop+0x7d8>
    1fb4:	24 30       	cpi	r18, 0x04	; 4
    1fb6:	10 f4       	brcc	.+4      	; 0x1fbc <Nixie_Loop+0x690>
    1fb8:	81 e0       	ldi	r24, 0x01	; 1
    1fba:	05 c0       	rjmp	.+10     	; 0x1fc6 <Nixie_Loop+0x69a>
    1fbc:	2a 50       	subi	r18, 0x0A	; 10
    1fbe:	2a 30       	cpi	r18, 0x0A	; 10
    1fc0:	08 f0       	brcs	.+2      	; 0x1fc4 <Nixie_Loop+0x698>
    1fc2:	a0 c0       	rjmp	.+320    	; 0x2104 <Nixie_Loop+0x7d8>
    1fc4:	82 e0       	ldi	r24, 0x02	; 2
    1fc6:	0e 94 fb 07 	call	0xff6	; 0xff6 <Nixie_Update>
    1fca:	0e 94 6f 13 	call	0x26de	; 0x26de <Timer_Pulse_10ms>
    1fce:	20 91 7d 01 	lds	r18, 0x017D	; 0x80017d <Debounce>
    1fd2:	22 23       	and	r18, r18
    1fd4:	19 f0       	breq	.+6      	; 0x1fdc <Nixie_Loop+0x6b0>
    1fd6:	91 e0       	ldi	r25, 0x01	; 1
    1fd8:	81 11       	cpse	r24, r1
    1fda:	01 c0       	rjmp	.+2      	; 0x1fde <Nixie_Loop+0x6b2>
    1fdc:	90 e0       	ldi	r25, 0x00	; 0
    1fde:	29 1b       	sub	r18, r25
    1fe0:	20 93 7d 01 	sts	0x017D, r18	; 0x80017d <Debounce>
    1fe4:	20 91 7e 01 	lds	r18, 0x017E	; 0x80017e <Debounce+0x1>
    1fe8:	22 23       	and	r18, r18
    1fea:	19 f0       	breq	.+6      	; 0x1ff2 <Nixie_Loop+0x6c6>
    1fec:	91 e0       	ldi	r25, 0x01	; 1
    1fee:	81 11       	cpse	r24, r1
    1ff0:	01 c0       	rjmp	.+2      	; 0x1ff4 <Nixie_Loop+0x6c8>
    1ff2:	90 e0       	ldi	r25, 0x00	; 0
    1ff4:	29 1b       	sub	r18, r25
    1ff6:	20 93 7e 01 	sts	0x017E, r18	; 0x80017e <Debounce+0x1>
    1ffa:	20 91 7f 01 	lds	r18, 0x017F	; 0x80017f <Debounce+0x2>
    1ffe:	22 23       	and	r18, r18
    2000:	31 f0       	breq	.+12     	; 0x200e <Nixie_Loop+0x6e2>
    2002:	91 e0       	ldi	r25, 0x01	; 1
    2004:	81 11       	cpse	r24, r1
    2006:	01 c0       	rjmp	.+2      	; 0x200a <Nixie_Loop+0x6de>
    2008:	90 e0       	ldi	r25, 0x00	; 0
    200a:	89 2f       	mov	r24, r25
    200c:	01 c0       	rjmp	.+2      	; 0x2010 <Nixie_Loop+0x6e4>
    200e:	80 e0       	ldi	r24, 0x00	; 0
    2010:	28 1b       	sub	r18, r24
    2012:	20 93 7f 01 	sts	0x017F, r18	; 0x80017f <Debounce+0x2>
    2016:	0e 94 75 13 	call	0x26ea	; 0x26ea <Timer_Pulse_1s>
    201a:	20 91 ae 01 	lds	r18, 0x01AE	; 0x8001ae <N_Clock+0x2e>
    201e:	22 23       	and	r18, r18
    2020:	19 f0       	breq	.+6      	; 0x2028 <Nixie_Loop+0x6fc>
    2022:	91 e0       	ldi	r25, 0x01	; 1
    2024:	81 11       	cpse	r24, r1
    2026:	01 c0       	rjmp	.+2      	; 0x202a <Nixie_Loop+0x6fe>
    2028:	90 e0       	ldi	r25, 0x00	; 0
    202a:	29 1b       	sub	r18, r25
    202c:	20 93 ae 01 	sts	0x01AE, r18	; 0x8001ae <N_Clock+0x2e>
    2030:	20 91 ac 01 	lds	r18, 0x01AC	; 0x8001ac <N_Clock+0x2c>
    2034:	22 23       	and	r18, r18
    2036:	19 f0       	breq	.+6      	; 0x203e <Nixie_Loop+0x712>
    2038:	91 e0       	ldi	r25, 0x01	; 1
    203a:	81 11       	cpse	r24, r1
    203c:	01 c0       	rjmp	.+2      	; 0x2040 <Nixie_Loop+0x714>
    203e:	90 e0       	ldi	r25, 0x00	; 0
    2040:	29 1b       	sub	r18, r25
    2042:	20 93 ac 01 	sts	0x01AC, r18	; 0x8001ac <N_Clock+0x2c>
    2046:	20 91 a5 01 	lds	r18, 0x01A5	; 0x8001a5 <N_Clock+0x25>
    204a:	22 23       	and	r18, r18
    204c:	51 f0       	breq	.+20     	; 0x2062 <Nixie_Loop+0x736>
    204e:	90 91 a1 01 	lds	r25, 0x01A1	; 0x8001a1 <N_Clock+0x21>
    2052:	93 30       	cpi	r25, 0x03	; 3
    2054:	31 f4       	brne	.+12     	; 0x2062 <Nixie_Loop+0x736>
    2056:	91 e0       	ldi	r25, 0x01	; 1
    2058:	81 11       	cpse	r24, r1
    205a:	01 c0       	rjmp	.+2      	; 0x205e <Nixie_Loop+0x732>
    205c:	90 e0       	ldi	r25, 0x00	; 0
    205e:	89 2f       	mov	r24, r25
    2060:	01 c0       	rjmp	.+2      	; 0x2064 <Nixie_Loop+0x738>
    2062:	80 e0       	ldi	r24, 0x00	; 0
    2064:	28 1b       	sub	r18, r24
    2066:	20 93 a5 01 	sts	0x01A5, r18	; 0x8001a5 <N_Clock+0x25>
    206a:	0e 94 6c 13 	call	0x26d8	; 0x26d8 <Timer_Pulse_1ms>
    206e:	90 91 a6 01 	lds	r25, 0x01A6	; 0x8001a6 <N_Clock+0x26>
    2072:	99 23       	and	r25, r25
    2074:	19 f0       	breq	.+6      	; 0x207c <Nixie_Loop+0x750>
    2076:	21 e0       	ldi	r18, 0x01	; 1
    2078:	81 11       	cpse	r24, r1
    207a:	01 c0       	rjmp	.+2      	; 0x207e <Nixie_Loop+0x752>
    207c:	20 e0       	ldi	r18, 0x00	; 0
    207e:	92 1b       	sub	r25, r18
    2080:	90 93 a6 01 	sts	0x01A6, r25	; 0x8001a6 <N_Clock+0x26>
    2084:	20 91 a7 01 	lds	r18, 0x01A7	; 0x8001a7 <N_Clock+0x27>
    2088:	22 23       	and	r18, r18
    208a:	29 f0       	breq	.+10     	; 0x2096 <Nixie_Loop+0x76a>
    208c:	91 11       	cpse	r25, r1
    208e:	03 c0       	rjmp	.+6      	; 0x2096 <Nixie_Loop+0x76a>
    2090:	91 e0       	ldi	r25, 0x01	; 1
    2092:	81 11       	cpse	r24, r1
    2094:	01 c0       	rjmp	.+2      	; 0x2098 <Nixie_Loop+0x76c>
    2096:	90 e0       	ldi	r25, 0x00	; 0
    2098:	29 1b       	sub	r18, r25
    209a:	20 93 a7 01 	sts	0x01A7, r18	; 0x8001a7 <N_Clock+0x27>
    209e:	90 91 97 01 	lds	r25, 0x0197	; 0x800197 <N_Clock+0x17>
    20a2:	99 23       	and	r25, r25
    20a4:	19 f0       	breq	.+6      	; 0x20ac <Nixie_Loop+0x780>
    20a6:	21 e0       	ldi	r18, 0x01	; 1
    20a8:	81 11       	cpse	r24, r1
    20aa:	01 c0       	rjmp	.+2      	; 0x20ae <Nixie_Loop+0x782>
    20ac:	20 e0       	ldi	r18, 0x00	; 0
    20ae:	92 1b       	sub	r25, r18
    20b0:	90 93 97 01 	sts	0x0197, r25	; 0x800197 <N_Clock+0x17>
    20b4:	20 91 98 01 	lds	r18, 0x0198	; 0x800198 <N_Clock+0x18>
    20b8:	22 23       	and	r18, r18
    20ba:	41 f0       	breq	.+16     	; 0x20cc <Nixie_Loop+0x7a0>
    20bc:	91 11       	cpse	r25, r1
    20be:	06 c0       	rjmp	.+12     	; 0x20cc <Nixie_Loop+0x7a0>
    20c0:	91 e0       	ldi	r25, 0x01	; 1
    20c2:	81 11       	cpse	r24, r1
    20c4:	01 c0       	rjmp	.+2      	; 0x20c8 <Nixie_Loop+0x79c>
    20c6:	90 e0       	ldi	r25, 0x00	; 0
    20c8:	89 2f       	mov	r24, r25
    20ca:	01 c0       	rjmp	.+2      	; 0x20ce <Nixie_Loop+0x7a2>
    20cc:	80 e0       	ldi	r24, 0x00	; 0
    20ce:	28 1b       	sub	r18, r24
    20d0:	20 93 98 01 	sts	0x0198, r18	; 0x800198 <N_Clock+0x18>
    20d4:	df 91       	pop	r29
    20d6:	cf 91       	pop	r28
    20d8:	1f 91       	pop	r17
    20da:	0f 91       	pop	r16
    20dc:	ff 90       	pop	r15
    20de:	ef 90       	pop	r14
    20e0:	08 95       	ret
    20e2:	ce 31       	cpi	r28, 0x1E	; 30
    20e4:	08 f0       	brcs	.+2      	; 0x20e8 <Nixie_Loop+0x7bc>
    20e6:	f1 ce       	rjmp	.-542    	; 0x1eca <Nixie_Loop+0x59e>
    20e8:	f1 ce       	rjmp	.-542    	; 0x1ecc <Nixie_Loop+0x5a0>
    20ea:	06 30       	cpi	r16, 0x06	; 6
    20ec:	09 f4       	brne	.+2      	; 0x20f0 <Nixie_Loop+0x7c4>
    20ee:	ed ce       	rjmp	.-550    	; 0x1eca <Nixie_Loop+0x59e>
    20f0:	09 30       	cpi	r16, 0x09	; 9
    20f2:	09 f4       	brne	.+2      	; 0x20f6 <Nixie_Loop+0x7ca>
    20f4:	ea ce       	rjmp	.-556    	; 0x1eca <Nixie_Loop+0x59e>
    20f6:	0b 30       	cpi	r16, 0x0B	; 11
    20f8:	09 f4       	brne	.+2      	; 0x20fc <Nixie_Loop+0x7d0>
    20fa:	e7 ce       	rjmp	.-562    	; 0x1eca <Nixie_Loop+0x59e>
    20fc:	cf 31       	cpi	r28, 0x1F	; 31
    20fe:	09 f0       	breq	.+2      	; 0x2102 <Nixie_Loop+0x7d6>
    2100:	e4 ce       	rjmp	.-568    	; 0x1eca <Nixie_Loop+0x59e>
    2102:	e4 ce       	rjmp	.-568    	; 0x1ecc <Nixie_Loop+0x5a0>
    2104:	83 e0       	ldi	r24, 0x03	; 3
    2106:	5f cf       	rjmp	.-322    	; 0x1fc6 <Nixie_Loop+0x69a>

00002108 <main>:
    2108:	0e 94 12 13 	call	0x2624	; 0x2624 <Timer_Init>
    210c:	0e 94 42 07 	call	0xe84	; 0xe84 <I2C_Init>
    2110:	0e 94 49 07 	call	0xe92	; 0xe92 <I2C_Enable>
    2114:	0e 94 95 04 	call	0x92a	; 0x92a <DS1307_Init>
    2118:	0e 94 f0 10 	call	0x21e0	; 0x21e0 <RTC_Init>
    211c:	0e 94 af 00 	call	0x15e	; 0x15e <Analog_Init>
    2120:	0e 94 16 0b 	call	0x162c	; 0x162c <Setting_Init>
    2124:	0e 94 1f 0b 	call	0x163e	; 0x163e <Nixie_Init>
    2128:	78 94       	sei
    212a:	0e 94 2e 13 	call	0x265c	; 0x265c <Timer_loop>
    212e:	0e 94 c8 05 	call	0xb90	; 0xb90 <I2C_Loop>
    2132:	0e 94 90 01 	call	0x320	; 0x320 <DS1307_Loop>
    2136:	0e 94 6a 11 	call	0x22d4	; 0x22d4 <RTC_Loop>
    213a:	0e 94 bf 00 	call	0x17e	; 0x17e <Analog_loop>
    213e:	0e 94 47 0b 	call	0x168e	; 0x168e <Setting_Loop>
    2142:	0e 94 96 0c 	call	0x192c	; 0x192c <Nixie_Loop>
    2146:	0e 94 c2 10 	call	0x2184	; 0x2184 <Power_Loop>
    214a:	0e 94 27 05 	call	0xa4e	; 0xa4e <EEPROM_Loop>
    214e:	ed cf       	rjmp	.-38     	; 0x212a <main+0x22>

00002150 <Power_Init>:
    2150:	82 e0       	ldi	r24, 0x02	; 2
    2152:	80 93 b0 00 	sts	0x00B0, r24	; 0x8000b0 <__TEXT_REGION_LENGTH__+0x7e00b0>
    2156:	81 e0       	ldi	r24, 0x01	; 1
    2158:	80 93 b1 00 	sts	0x00B1, r24	; 0x8000b1 <__TEXT_REGION_LENGTH__+0x7e00b1>
    215c:	88 e7       	ldi	r24, 0x78	; 120
    215e:	80 93 b3 00 	sts	0x00B3, r24	; 0x8000b3 <__TEXT_REGION_LENGTH__+0x7e00b3>
    2162:	23 9a       	sbi	0x04, 3	; 4
    2164:	8b e2       	ldi	r24, 0x2B	; 43
    2166:	92 e0       	ldi	r25, 0x02	; 2
    2168:	90 93 0c 02 	sts	0x020C, r25	; 0x80020c <N_Power+0x4>
    216c:	80 93 0b 02 	sts	0x020B, r24	; 0x80020b <N_Power+0x3>
    2170:	61 e0       	ldi	r22, 0x01	; 1
    2172:	70 e0       	ldi	r23, 0x00	; 0
    2174:	80 e0       	ldi	r24, 0x00	; 0
    2176:	0e 94 3a 01 	call	0x274	; 0x274 <Analog_Channel_Init>
    217a:	64 e6       	ldi	r22, 0x64	; 100
    217c:	70 e0       	ldi	r23, 0x00	; 0
    217e:	83 e0       	ldi	r24, 0x03	; 3
    2180:	0c 94 3a 01 	jmp	0x274	; 0x274 <Analog_Channel_Init>

00002184 <Power_Loop>:
    2184:	80 e0       	ldi	r24, 0x00	; 0
    2186:	0e 94 5e 01 	call	0x2bc	; 0x2bc <Analog_Channel_Ready>
    218a:	88 23       	and	r24, r24
    218c:	39 f0       	breq	.+14     	; 0x219c <Power_Loop+0x18>
    218e:	80 e0       	ldi	r24, 0x00	; 0
    2190:	0e 94 48 01 	call	0x290	; 0x290 <Analog_Channel_Read>
    2194:	90 93 0a 02 	sts	0x020A, r25	; 0x80020a <N_Power+0x2>
    2198:	80 93 09 02 	sts	0x0209, r24	; 0x800209 <N_Power+0x1>
    219c:	80 91 08 02 	lds	r24, 0x0208	; 0x800208 <N_Power>
    21a0:	88 23       	and	r24, r24
    21a2:	71 f0       	breq	.+28     	; 0x21c0 <Power_Loop+0x3c>
    21a4:	81 30       	cpi	r24, 0x01	; 1
    21a6:	09 f0       	breq	.+2      	; 0x21aa <Power_Loop+0x26>
    21a8:	08 95       	ret
    21aa:	20 91 09 02 	lds	r18, 0x0209	; 0x800209 <N_Power+0x1>
    21ae:	30 91 0a 02 	lds	r19, 0x020A	; 0x80020a <N_Power+0x2>
    21b2:	80 91 0b 02 	lds	r24, 0x020B	; 0x80020b <N_Power+0x3>
    21b6:	90 91 0c 02 	lds	r25, 0x020C	; 0x80020c <N_Power+0x4>
    21ba:	82 17       	cp	r24, r18
    21bc:	93 07       	cpc	r25, r19
    21be:	38 f4       	brcc	.+14     	; 0x21ce <Power_Loop+0x4a>
    21c0:	80 91 b0 00 	lds	r24, 0x00B0	; 0x8000b0 <__TEXT_REGION_LENGTH__+0x7e00b0>
    21c4:	8f 73       	andi	r24, 0x3F	; 63
    21c6:	80 93 b0 00 	sts	0x00B0, r24	; 0x8000b0 <__TEXT_REGION_LENGTH__+0x7e00b0>
    21ca:	2b 98       	cbi	0x05, 3	; 5
    21cc:	08 95       	ret
    21ce:	80 91 b0 00 	lds	r24, 0x00B0	; 0x8000b0 <__TEXT_REGION_LENGTH__+0x7e00b0>
    21d2:	80 64       	ori	r24, 0x40	; 64
    21d4:	80 93 b0 00 	sts	0x00B0, r24	; 0x8000b0 <__TEXT_REGION_LENGTH__+0x7e00b0>
    21d8:	08 95       	ret

000021da <Power_Mode>:
    21da:	80 93 08 02 	sts	0x0208, r24	; 0x800208 <N_Power>
    21de:	08 95       	ret

000021e0 <RTC_Init>:
    21e0:	e2 ee       	ldi	r30, 0xE2	; 226
    21e2:	f1 e0       	ldi	r31, 0x01	; 1
    21e4:	8d ea       	ldi	r24, 0xAD	; 173
    21e6:	94 e0       	ldi	r25, 0x04	; 4
    21e8:	97 87       	std	Z+15, r25	; 0x0f
    21ea:	86 87       	std	Z+14, r24	; 0x0e
    21ec:	8c ec       	ldi	r24, 0xCC	; 204
    21ee:	94 e0       	ldi	r25, 0x04	; 4
    21f0:	91 8b       	std	Z+17, r25	; 0x11
    21f2:	80 8b       	std	Z+16, r24	; 0x10
    21f4:	8a eb       	ldi	r24, 0xBA	; 186
    21f6:	94 e0       	ldi	r25, 0x04	; 4
    21f8:	93 8b       	std	Z+19, r25	; 0x13
    21fa:	82 8b       	std	Z+18, r24	; 0x12
    21fc:	80 ee       	ldi	r24, 0xE0	; 224
    21fe:	94 e0       	ldi	r25, 0x04	; 4
    2200:	95 8b       	std	Z+21, r25	; 0x15
    2202:	84 8b       	std	Z+20, r24	; 0x14
    2204:	86 ec       	ldi	r24, 0xC6	; 198
    2206:	94 e0       	ldi	r25, 0x04	; 4
    2208:	97 8b       	std	Z+23, r25	; 0x17
    220a:	86 8b       	std	Z+22, r24	; 0x16
    220c:	86 e0       	ldi	r24, 0x06	; 6
    220e:	95 e0       	ldi	r25, 0x05	; 5
    2210:	91 8f       	std	Z+25, r25	; 0x19
    2212:	80 8f       	std	Z+24, r24	; 0x18
    2214:	89 ec       	ldi	r24, 0xC9	; 201
    2216:	94 e0       	ldi	r25, 0x04	; 4
    2218:	93 8f       	std	Z+27, r25	; 0x1b
    221a:	82 8f       	std	Z+26, r24	; 0x1a
    221c:	81 e2       	ldi	r24, 0x21	; 33
    221e:	95 e0       	ldi	r25, 0x05	; 5
    2220:	95 8f       	std	Z+29, r25	; 0x1d
    2222:	84 8f       	std	Z+28, r24	; 0x1c
    2224:	8c e0       	ldi	r24, 0x0C	; 12
    2226:	95 e0       	ldi	r25, 0x05	; 5
    2228:	97 8f       	std	Z+31, r25	; 0x1f
    222a:	86 8f       	std	Z+30, r24	; 0x1e
    222c:	86 e1       	ldi	r24, 0x16	; 22
    222e:	95 e0       	ldi	r25, 0x05	; 5
    2230:	91 a3       	std	Z+33, r25	; 0x21
    2232:	80 a3       	std	Z+32, r24	; 0x20
    2234:	81 e0       	ldi	r24, 0x01	; 1
    2236:	87 83       	std	Z+7, r24	; 0x07
    2238:	08 95       	ret

0000223a <RTC_Set_TWLF>:
    223a:	cf 93       	push	r28
    223c:	e0 91 f6 01 	lds	r30, 0x01F6	; 0x8001f6 <RTC+0x14>
    2240:	f0 91 f7 01 	lds	r31, 0x01F7	; 0x8001f7 <RTC+0x15>
    2244:	30 97       	sbiw	r30, 0x00	; 0
    2246:	21 f0       	breq	.+8      	; 0x2250 <RTC_Set_TWLF+0x16>
    2248:	c8 2f       	mov	r28, r24
    224a:	09 95       	icall
    224c:	c0 93 ea 01 	sts	0x01EA, r28	; 0x8001ea <RTC+0x8>
    2250:	cf 91       	pop	r28
    2252:	08 95       	ret

00002254 <RTC_Get_TWLF>:
    2254:	e0 91 f8 01 	lds	r30, 0x01F8	; 0x8001f8 <RTC+0x16>
    2258:	f0 91 f9 01 	lds	r31, 0x01F9	; 0x8001f9 <RTC+0x17>
    225c:	30 97       	sbiw	r30, 0x00	; 0
    225e:	09 f0       	breq	.+2      	; 0x2262 <RTC_Get_TWLF+0xe>
    2260:	09 94       	ijmp
    2262:	80 91 ea 01 	lds	r24, 0x01EA	; 0x8001ea <RTC+0x8>
    2266:	08 95       	ret

00002268 <RTC_Set_PM>:
    2268:	cf 93       	push	r28
    226a:	e0 91 fa 01 	lds	r30, 0x01FA	; 0x8001fa <RTC+0x18>
    226e:	f0 91 fb 01 	lds	r31, 0x01FB	; 0x8001fb <RTC+0x19>
    2272:	30 97       	sbiw	r30, 0x00	; 0
    2274:	21 f0       	breq	.+8      	; 0x227e <RTC_Set_PM+0x16>
    2276:	c8 2f       	mov	r28, r24
    2278:	09 95       	icall
    227a:	c0 93 eb 01 	sts	0x01EB, r28	; 0x8001eb <RTC+0x9>
    227e:	cf 91       	pop	r28
    2280:	08 95       	ret

00002282 <RTC_Get_PM>:
    2282:	e0 91 fc 01 	lds	r30, 0x01FC	; 0x8001fc <RTC+0x1a>
    2286:	f0 91 fd 01 	lds	r31, 0x01FD	; 0x8001fd <RTC+0x1b>
    228a:	30 97       	sbiw	r30, 0x00	; 0
    228c:	09 f0       	breq	.+2      	; 0x2290 <RTC_Get_PM+0xe>
    228e:	09 94       	ijmp
    2290:	80 91 eb 01 	lds	r24, 0x01EB	; 0x8001eb <RTC+0x9>
    2294:	08 95       	ret

00002296 <RTC_Ready>:
    2296:	80 91 e9 01 	lds	r24, 0x01E9	; 0x8001e9 <RTC+0x7>
    229a:	82 30       	cpi	r24, 0x02	; 2
    229c:	21 f4       	brne	.+8      	; 0x22a6 <RTC_Ready+0x10>
    229e:	81 e0       	ldi	r24, 0x01	; 1
    22a0:	90 91 ec 01 	lds	r25, 0x01EC	; 0x8001ec <RTC+0xa>
    22a4:	91 11       	cpse	r25, r1
    22a6:	80 e0       	ldi	r24, 0x00	; 0
    22a8:	08 95       	ret

000022aa <RTC_not_leap>:
    22aa:	20 91 e7 01 	lds	r18, 0x01E7	; 0x8001e7 <RTC+0x5>
    22ae:	30 e0       	ldi	r19, 0x00	; 0
    22b0:	20 53       	subi	r18, 0x30	; 48
    22b2:	38 4f       	sbci	r19, 0xF8	; 248
    22b4:	c9 01       	movw	r24, r18
    22b6:	64 e6       	ldi	r22, 0x64	; 100
    22b8:	70 e0       	ldi	r23, 0x00	; 0
    22ba:	0e 94 a9 13 	call	0x2752	; 0x2752 <__divmodhi4>
    22be:	89 2b       	or	r24, r25
    22c0:	31 f4       	brne	.+12     	; 0x22ce <RTC_not_leap+0x24>
    22c2:	c9 01       	movw	r24, r18
    22c4:	60 e9       	ldi	r22, 0x90	; 144
    22c6:	71 e0       	ldi	r23, 0x01	; 1
    22c8:	0e 94 a9 13 	call	0x2752	; 0x2752 <__divmodhi4>
    22cc:	08 95       	ret
    22ce:	82 2f       	mov	r24, r18
    22d0:	83 70       	andi	r24, 0x03	; 3
    22d2:	08 95       	ret

000022d4 <RTC_Loop>:
    22d4:	1f 93       	push	r17
    22d6:	cf 93       	push	r28
    22d8:	df 93       	push	r29
    22da:	80 91 ee 01 	lds	r24, 0x01EE	; 0x8001ee <RTC+0xc>
    22de:	88 23       	and	r24, r24
    22e0:	41 f0       	breq	.+16     	; 0x22f2 <RTC_Loop+0x1e>
    22e2:	80 91 ef 01 	lds	r24, 0x01EF	; 0x8001ef <RTC+0xd>
    22e6:	88 23       	and	r24, r24
    22e8:	41 f0       	breq	.+16     	; 0x22fa <RTC_Loop+0x26>
    22ea:	10 92 ef 01 	sts	0x01EF, r1	; 0x8001ef <RTC+0xd>
    22ee:	11 e0       	ldi	r17, 0x01	; 1
    22f0:	05 c0       	rjmp	.+10     	; 0x22fc <RTC_Loop+0x28>
    22f2:	0e 94 75 13 	call	0x26ea	; 0x26ea <Timer_Pulse_1s>
    22f6:	18 2f       	mov	r17, r24
    22f8:	01 c0       	rjmp	.+2      	; 0x22fc <RTC_Loop+0x28>
    22fa:	10 e0       	ldi	r17, 0x00	; 0
    22fc:	80 91 e9 01 	lds	r24, 0x01E9	; 0x8001e9 <RTC+0x7>
    2300:	81 30       	cpi	r24, 0x01	; 1
    2302:	41 f0       	breq	.+16     	; 0x2314 <RTC_Loop+0x40>
    2304:	08 f4       	brcc	.+2      	; 0x2308 <RTC_Loop+0x34>
    2306:	e7 c0       	rjmp	.+462    	; 0x24d6 <RTC_Loop+0x202>
    2308:	82 30       	cpi	r24, 0x02	; 2
    230a:	79 f0       	breq	.+30     	; 0x232a <RTC_Loop+0x56>
    230c:	83 30       	cpi	r24, 0x03	; 3
    230e:	09 f4       	brne	.+2      	; 0x2312 <RTC_Loop+0x3e>
    2310:	86 c0       	rjmp	.+268    	; 0x241e <RTC_Loop+0x14a>
    2312:	df c0       	rjmp	.+446    	; 0x24d2 <RTC_Loop+0x1fe>
    2314:	80 93 e8 01 	sts	0x01E8, r24	; 0x8001e8 <RTC+0x6>
    2318:	81 e0       	ldi	r24, 0x01	; 1
    231a:	90 e0       	ldi	r25, 0x00	; 0
    231c:	90 93 07 02 	sts	0x0207, r25	; 0x800207 <RTC+0x25>
    2320:	80 93 06 02 	sts	0x0206, r24	; 0x800206 <RTC+0x24>
    2324:	10 92 ed 01 	sts	0x01ED, r1	; 0x8001ed <RTC+0xb>
    2328:	17 c0       	rjmp	.+46     	; 0x2358 <RTC_Loop+0x84>
    232a:	80 91 ec 01 	lds	r24, 0x01EC	; 0x8001ec <RTC+0xa>
    232e:	81 30       	cpi	r24, 0x01	; 1
    2330:	b1 f0       	breq	.+44     	; 0x235e <RTC_Loop+0x8a>
    2332:	80 91 06 02 	lds	r24, 0x0206	; 0x800206 <RTC+0x24>
    2336:	90 91 07 02 	lds	r25, 0x0207	; 0x800207 <RTC+0x25>
    233a:	89 2b       	or	r24, r25
    233c:	91 f4       	brne	.+36     	; 0x2362 <RTC_Loop+0x8e>
    233e:	80 91 04 02 	lds	r24, 0x0204	; 0x800204 <RTC+0x22>
    2342:	90 91 05 02 	lds	r25, 0x0205	; 0x800205 <RTC+0x23>
    2346:	18 16       	cp	r1, r24
    2348:	19 06       	cpc	r1, r25
    234a:	14 f0       	brlt	.+4      	; 0x2350 <RTC_Loop+0x7c>
    234c:	8a e0       	ldi	r24, 0x0A	; 10
    234e:	90 e0       	ldi	r25, 0x00	; 0
    2350:	90 93 07 02 	sts	0x0207, r25	; 0x800207 <RTC+0x25>
    2354:	80 93 06 02 	sts	0x0206, r24	; 0x800206 <RTC+0x24>
    2358:	82 e0       	ldi	r24, 0x02	; 2
    235a:	80 93 ec 01 	sts	0x01EC, r24	; 0x8001ec <RTC+0xa>
    235e:	83 e0       	ldi	r24, 0x03	; 3
    2360:	b5 c0       	rjmp	.+362    	; 0x24cc <RTC_Loop+0x1f8>
    2362:	e0 91 f0 01 	lds	r30, 0x01F0	; 0x8001f0 <RTC+0xe>
    2366:	f0 91 f1 01 	lds	r31, 0x01F1	; 0x8001f1 <RTC+0xf>
    236a:	09 95       	icall
    236c:	88 23       	and	r24, r24
    236e:	f9 f0       	breq	.+62     	; 0x23ae <RTC_Loop+0xda>
    2370:	80 91 ed 01 	lds	r24, 0x01ED	; 0x8001ed <RTC+0xb>
    2374:	81 11       	cpse	r24, r1
    2376:	1b c0       	rjmp	.+54     	; 0x23ae <RTC_Loop+0xda>
    2378:	81 e0       	ldi	r24, 0x01	; 1
    237a:	80 93 ed 01 	sts	0x01ED, r24	; 0x8001ed <RTC+0xb>
    237e:	e0 91 f8 01 	lds	r30, 0x01F8	; 0x8001f8 <RTC+0x16>
    2382:	f0 91 f9 01 	lds	r31, 0x01F9	; 0x8001f9 <RTC+0x17>
    2386:	09 95       	icall
    2388:	91 e0       	ldi	r25, 0x01	; 1
    238a:	81 11       	cpse	r24, r1
    238c:	01 c0       	rjmp	.+2      	; 0x2390 <RTC_Loop+0xbc>
    238e:	90 e0       	ldi	r25, 0x00	; 0
    2390:	90 93 ea 01 	sts	0x01EA, r25	; 0x8001ea <RTC+0x8>
    2394:	88 23       	and	r24, r24
    2396:	59 f0       	breq	.+22     	; 0x23ae <RTC_Loop+0xda>
    2398:	e0 91 fc 01 	lds	r30, 0x01FC	; 0x8001fc <RTC+0x1a>
    239c:	f0 91 fd 01 	lds	r31, 0x01FD	; 0x8001fd <RTC+0x1b>
    23a0:	09 95       	icall
    23a2:	91 e0       	ldi	r25, 0x01	; 1
    23a4:	81 11       	cpse	r24, r1
    23a6:	01 c0       	rjmp	.+2      	; 0x23aa <RTC_Loop+0xd6>
    23a8:	90 e0       	ldi	r25, 0x00	; 0
    23aa:	90 93 eb 01 	sts	0x01EB, r25	; 0x8001eb <RTC+0x9>
    23ae:	80 91 e2 01 	lds	r24, 0x01E2	; 0x8001e2 <RTC>
    23b2:	81 0f       	add	r24, r17
    23b4:	8c 33       	cpi	r24, 0x3C	; 60
    23b6:	18 f4       	brcc	.+6      	; 0x23be <RTC_Loop+0xea>
    23b8:	80 93 e2 01 	sts	0x01E2, r24	; 0x8001e2 <RTC>
    23bc:	8c c0       	rjmp	.+280    	; 0x24d6 <RTC_Loop+0x202>
    23be:	10 92 e2 01 	sts	0x01E2, r1	; 0x8001e2 <RTC>
    23c2:	80 91 e3 01 	lds	r24, 0x01E3	; 0x8001e3 <RTC+0x1>
    23c6:	8f 5f       	subi	r24, 0xFF	; 255
    23c8:	8c 33       	cpi	r24, 0x3C	; 60
    23ca:	18 f4       	brcc	.+6      	; 0x23d2 <RTC_Loop+0xfe>
    23cc:	80 93 e3 01 	sts	0x01E3, r24	; 0x8001e3 <RTC+0x1>
    23d0:	82 c0       	rjmp	.+260    	; 0x24d6 <RTC_Loop+0x202>
    23d2:	10 92 e3 01 	sts	0x01E3, r1	; 0x8001e3 <RTC+0x1>
    23d6:	80 91 e4 01 	lds	r24, 0x01E4	; 0x8001e4 <RTC+0x2>
    23da:	8f 5f       	subi	r24, 0xFF	; 255
    23dc:	80 93 e4 01 	sts	0x01E4, r24	; 0x8001e4 <RTC+0x2>
    23e0:	90 91 ea 01 	lds	r25, 0x01EA	; 0x8001ea <RTC+0x8>
    23e4:	99 23       	and	r25, r25
    23e6:	a9 f0       	breq	.+42     	; 0x2412 <RTC_Loop+0x13e>
    23e8:	90 91 eb 01 	lds	r25, 0x01EB	; 0x8001eb <RTC+0x9>
    23ec:	99 23       	and	r25, r25
    23ee:	41 f0       	breq	.+16     	; 0x2400 <RTC_Loop+0x12c>
    23f0:	8c 30       	cpi	r24, 0x0C	; 12
    23f2:	08 f4       	brcc	.+2      	; 0x23f6 <RTC_Loop+0x122>
    23f4:	70 c0       	rjmp	.+224    	; 0x24d6 <RTC_Loop+0x202>
    23f6:	10 92 e4 01 	sts	0x01E4, r1	; 0x8001e4 <RTC+0x2>
    23fa:	10 92 eb 01 	sts	0x01EB, r1	; 0x8001eb <RTC+0x9>
    23fe:	85 c0       	rjmp	.+266    	; 0x250a <RTC_Loop+0x236>
    2400:	8d 30       	cpi	r24, 0x0D	; 13
    2402:	08 f4       	brcc	.+2      	; 0x2406 <RTC_Loop+0x132>
    2404:	68 c0       	rjmp	.+208    	; 0x24d6 <RTC_Loop+0x202>
    2406:	81 e0       	ldi	r24, 0x01	; 1
    2408:	80 93 e4 01 	sts	0x01E4, r24	; 0x8001e4 <RTC+0x2>
    240c:	80 93 eb 01 	sts	0x01EB, r24	; 0x8001eb <RTC+0x9>
    2410:	62 c0       	rjmp	.+196    	; 0x24d6 <RTC_Loop+0x202>
    2412:	88 31       	cpi	r24, 0x18	; 24
    2414:	08 f4       	brcc	.+2      	; 0x2418 <RTC_Loop+0x144>
    2416:	5f c0       	rjmp	.+190    	; 0x24d6 <RTC_Loop+0x202>
    2418:	10 92 e4 01 	sts	0x01E4, r1	; 0x8001e4 <RTC+0x2>
    241c:	76 c0       	rjmp	.+236    	; 0x250a <RTC_Loop+0x236>
    241e:	e0 91 f0 01 	lds	r30, 0x01F0	; 0x8001f0 <RTC+0xe>
    2422:	f0 91 f1 01 	lds	r31, 0x01F1	; 0x8001f1 <RTC+0xf>
    2426:	30 97       	sbiw	r30, 0x00	; 0
    2428:	09 f4       	brne	.+2      	; 0x242c <RTC_Loop+0x158>
    242a:	4b c0       	rjmp	.+150    	; 0x24c2 <RTC_Loop+0x1ee>
    242c:	09 95       	icall
    242e:	88 23       	and	r24, r24
    2430:	09 f4       	brne	.+2      	; 0x2434 <RTC_Loop+0x160>
    2432:	47 c0       	rjmp	.+142    	; 0x24c2 <RTC_Loop+0x1ee>
    2434:	e0 91 fe 01 	lds	r30, 0x01FE	; 0x8001fe <RTC+0x1c>
    2438:	f0 91 ff 01 	lds	r31, 0x01FF	; 0x8001ff <RTC+0x1d>
    243c:	30 97       	sbiw	r30, 0x00	; 0
    243e:	51 f0       	breq	.+20     	; 0x2454 <RTC_Loop+0x180>
    2440:	09 95       	icall
    2442:	81 11       	cpse	r24, r1
    2444:	07 c0       	rjmp	.+14     	; 0x2454 <RTC_Loop+0x180>
    2446:	e0 91 00 02 	lds	r30, 0x0200	; 0x800200 <RTC+0x1e>
    244a:	f0 91 01 02 	lds	r31, 0x0201	; 0x800201 <RTC+0x1f>
    244e:	30 97       	sbiw	r30, 0x00	; 0
    2450:	09 f0       	breq	.+2      	; 0x2454 <RTC_Loop+0x180>
    2452:	09 95       	icall
    2454:	e0 91 f2 01 	lds	r30, 0x01F2	; 0x8001f2 <RTC+0x10>
    2458:	f0 91 f3 01 	lds	r31, 0x01F3	; 0x8001f3 <RTC+0x11>
    245c:	30 97       	sbiw	r30, 0x00	; 0
    245e:	b1 f0       	breq	.+44     	; 0x248c <RTC_Loop+0x1b8>
    2460:	80 91 ec 01 	lds	r24, 0x01EC	; 0x8001ec <RTC+0xa>
    2464:	81 30       	cpi	r24, 0x01	; 1
    2466:	91 f4       	brne	.+36     	; 0x248c <RTC_Loop+0x1b8>
    2468:	82 ee       	ldi	r24, 0xE2	; 226
    246a:	91 e0       	ldi	r25, 0x01	; 1
    246c:	09 95       	icall
    246e:	e0 91 fa 01 	lds	r30, 0x01FA	; 0x8001fa <RTC+0x18>
    2472:	f0 91 fb 01 	lds	r31, 0x01FB	; 0x8001fb <RTC+0x19>
    2476:	80 91 eb 01 	lds	r24, 0x01EB	; 0x8001eb <RTC+0x9>
    247a:	09 95       	icall
    247c:	e0 91 f6 01 	lds	r30, 0x01F6	; 0x8001f6 <RTC+0x14>
    2480:	f0 91 f7 01 	lds	r31, 0x01F7	; 0x8001f7 <RTC+0x15>
    2484:	80 91 ea 01 	lds	r24, 0x01EA	; 0x8001ea <RTC+0x8>
    2488:	09 95       	icall
    248a:	1b c0       	rjmp	.+54     	; 0x24c2 <RTC_Loop+0x1ee>
    248c:	e0 91 f4 01 	lds	r30, 0x01F4	; 0x8001f4 <RTC+0x12>
    2490:	f0 91 f5 01 	lds	r31, 0x01F5	; 0x8001f5 <RTC+0x13>
    2494:	30 97       	sbiw	r30, 0x00	; 0
    2496:	a9 f0       	breq	.+42     	; 0x24c2 <RTC_Loop+0x1ee>
    2498:	80 91 ec 01 	lds	r24, 0x01EC	; 0x8001ec <RTC+0xa>
    249c:	82 30       	cpi	r24, 0x02	; 2
    249e:	89 f4       	brne	.+34     	; 0x24c2 <RTC_Loop+0x1ee>
    24a0:	82 ee       	ldi	r24, 0xE2	; 226
    24a2:	91 e0       	ldi	r25, 0x01	; 1
    24a4:	09 95       	icall
    24a6:	e0 91 fc 01 	lds	r30, 0x01FC	; 0x8001fc <RTC+0x1a>
    24aa:	f0 91 fd 01 	lds	r31, 0x01FD	; 0x8001fd <RTC+0x1b>
    24ae:	09 95       	icall
    24b0:	80 93 eb 01 	sts	0x01EB, r24	; 0x8001eb <RTC+0x9>
    24b4:	e0 91 f8 01 	lds	r30, 0x01F8	; 0x8001f8 <RTC+0x16>
    24b8:	f0 91 f9 01 	lds	r31, 0x01F9	; 0x8001f9 <RTC+0x17>
    24bc:	09 95       	icall
    24be:	80 93 ea 01 	sts	0x01EA, r24	; 0x8001ea <RTC+0x8>
    24c2:	10 92 ec 01 	sts	0x01EC, r1	; 0x8001ec <RTC+0xa>
    24c6:	10 92 ed 01 	sts	0x01ED, r1	; 0x8001ed <RTC+0xb>
    24ca:	82 e0       	ldi	r24, 0x02	; 2
    24cc:	80 93 e9 01 	sts	0x01E9, r24	; 0x8001e9 <RTC+0x7>
    24d0:	02 c0       	rjmp	.+4      	; 0x24d6 <RTC_Loop+0x202>
    24d2:	10 92 e9 01 	sts	0x01E9, r1	; 0x8001e9 <RTC+0x7>
    24d6:	80 91 06 02 	lds	r24, 0x0206	; 0x800206 <RTC+0x24>
    24da:	90 91 07 02 	lds	r25, 0x0207	; 0x800207 <RTC+0x25>
    24de:	00 97       	sbiw	r24, 0x00	; 0
    24e0:	41 f0       	breq	.+16     	; 0x24f2 <RTC_Loop+0x21e>
    24e2:	51 e0       	ldi	r21, 0x01	; 1
    24e4:	40 e0       	ldi	r20, 0x00	; 0
    24e6:	11 11       	cpse	r17, r1
    24e8:	01 c0       	rjmp	.+2      	; 0x24ec <RTC_Loop+0x218>
    24ea:	50 e0       	ldi	r21, 0x00	; 0
    24ec:	25 2f       	mov	r18, r21
    24ee:	34 2f       	mov	r19, r20
    24f0:	02 c0       	rjmp	.+4      	; 0x24f6 <RTC_Loop+0x222>
    24f2:	20 e0       	ldi	r18, 0x00	; 0
    24f4:	30 e0       	ldi	r19, 0x00	; 0
    24f6:	82 1b       	sub	r24, r18
    24f8:	93 0b       	sbc	r25, r19
    24fa:	90 93 07 02 	sts	0x0207, r25	; 0x800207 <RTC+0x25>
    24fe:	80 93 06 02 	sts	0x0206, r24	; 0x800206 <RTC+0x24>
    2502:	df 91       	pop	r29
    2504:	cf 91       	pop	r28
    2506:	1f 91       	pop	r17
    2508:	08 95       	ret
    250a:	d0 91 e5 01 	lds	r29, 0x01E5	; 0x8001e5 <RTC+0x3>
    250e:	df 5f       	subi	r29, 0xFF	; 255
    2510:	d0 93 e5 01 	sts	0x01E5, r29	; 0x8001e5 <RTC+0x3>
    2514:	c0 91 e6 01 	lds	r28, 0x01E6	; 0x8001e6 <RTC+0x4>
    2518:	c2 30       	cpi	r28, 0x02	; 2
    251a:	81 f4       	brne	.+32     	; 0x253c <RTC_Loop+0x268>
    251c:	dc 31       	cpi	r29, 0x1C	; 28
    251e:	d8 f2       	brcs	.-74     	; 0x24d6 <RTC_Loop+0x202>
    2520:	0e 94 55 11 	call	0x22aa	; 0x22aa <RTC_not_leap>
    2524:	88 23       	and	r24, r24
    2526:	39 f0       	breq	.+14     	; 0x2536 <RTC_Loop+0x262>
    2528:	81 e0       	ldi	r24, 0x01	; 1
    252a:	80 93 e5 01 	sts	0x01E5, r24	; 0x8001e5 <RTC+0x3>
    252e:	cf 5f       	subi	r28, 0xFF	; 255
    2530:	cd 30       	cpi	r28, 0x0D	; 13
    2532:	88 f4       	brcc	.+34     	; 0x2556 <RTC_Loop+0x282>
    2534:	1d c0       	rjmp	.+58     	; 0x2570 <RTC_Loop+0x29c>
    2536:	dc 31       	cpi	r29, 0x1C	; 28
    2538:	b9 f7       	brne	.-18     	; 0x2528 <RTC_Loop+0x254>
    253a:	cd cf       	rjmp	.-102    	; 0x24d6 <RTC_Loop+0x202>
    253c:	de 31       	cpi	r29, 0x1E	; 30
    253e:	58 f2       	brcs	.-106    	; 0x24d6 <RTC_Loop+0x202>
    2540:	c4 30       	cpi	r28, 0x04	; 4
    2542:	91 f3       	breq	.-28     	; 0x2528 <RTC_Loop+0x254>
    2544:	c7 30       	cpi	r28, 0x07	; 7
    2546:	81 f3       	breq	.-32     	; 0x2528 <RTC_Loop+0x254>
    2548:	8c 2f       	mov	r24, r28
    254a:	8d 7f       	andi	r24, 0xFD	; 253
    254c:	89 30       	cpi	r24, 0x09	; 9
    254e:	61 f3       	breq	.-40     	; 0x2528 <RTC_Loop+0x254>
    2550:	de 31       	cpi	r29, 0x1E	; 30
    2552:	51 f7       	brne	.-44     	; 0x2528 <RTC_Loop+0x254>
    2554:	c0 cf       	rjmp	.-128    	; 0x24d6 <RTC_Loop+0x202>
    2556:	80 93 e6 01 	sts	0x01E6, r24	; 0x8001e6 <RTC+0x4>
    255a:	80 91 e7 01 	lds	r24, 0x01E7	; 0x8001e7 <RTC+0x5>
    255e:	8f 5f       	subi	r24, 0xFF	; 255
    2560:	84 36       	cpi	r24, 0x64	; 100
    2562:	18 f4       	brcc	.+6      	; 0x256a <RTC_Loop+0x296>
    2564:	80 93 e7 01 	sts	0x01E7, r24	; 0x8001e7 <RTC+0x5>
    2568:	b6 cf       	rjmp	.-148    	; 0x24d6 <RTC_Loop+0x202>
    256a:	10 92 e7 01 	sts	0x01E7, r1	; 0x8001e7 <RTC+0x5>
    256e:	b3 cf       	rjmp	.-154    	; 0x24d6 <RTC_Loop+0x202>
    2570:	c0 93 e6 01 	sts	0x01E6, r28	; 0x8001e6 <RTC+0x4>
    2574:	b0 cf       	rjmp	.-160    	; 0x24d6 <RTC_Loop+0x202>

00002576 <RTC_Set_DateTime>:
    2576:	ef 92       	push	r14
    2578:	0f 93       	push	r16
    257a:	cf 93       	push	r28
    257c:	c2 2f       	mov	r28, r18
    257e:	8c 33       	cpi	r24, 0x3C	; 60
    2580:	10 f4       	brcc	.+4      	; 0x2586 <RTC_Set_DateTime+0x10>
    2582:	80 93 e2 01 	sts	0x01E2, r24	; 0x8001e2 <RTC>
    2586:	6c 33       	cpi	r22, 0x3C	; 60
    2588:	10 f4       	brcc	.+4      	; 0x258e <RTC_Set_DateTime+0x18>
    258a:	60 93 e3 01 	sts	0x01E3, r22	; 0x8001e3 <RTC+0x1>
    258e:	80 91 ea 01 	lds	r24, 0x01EA	; 0x8001ea <RTC+0x8>
    2592:	81 11       	cpse	r24, r1
    2594:	05 c0       	rjmp	.+10     	; 0x25a0 <RTC_Set_DateTime+0x2a>
    2596:	48 31       	cpi	r20, 0x18	; 24
    2598:	18 f4       	brcc	.+6      	; 0x25a0 <RTC_Set_DateTime+0x2a>
    259a:	40 93 e4 01 	sts	0x01E4, r20	; 0x8001e4 <RTC+0x2>
    259e:	09 c0       	rjmp	.+18     	; 0x25b2 <RTC_Set_DateTime+0x3c>
    25a0:	80 91 eb 01 	lds	r24, 0x01EB	; 0x8001eb <RTC+0x9>
    25a4:	88 23       	and	r24, r24
    25a6:	19 f0       	breq	.+6      	; 0x25ae <RTC_Set_DateTime+0x38>
    25a8:	4c 30       	cpi	r20, 0x0C	; 12
    25aa:	b8 f3       	brcs	.-18     	; 0x259a <RTC_Set_DateTime+0x24>
    25ac:	02 c0       	rjmp	.+4      	; 0x25b2 <RTC_Set_DateTime+0x3c>
    25ae:	4d 30       	cpi	r20, 0x0D	; 13
    25b0:	a0 f3       	brcs	.-24     	; 0x259a <RTC_Set_DateTime+0x24>
    25b2:	83 e6       	ldi	r24, 0x63	; 99
    25b4:	8e 15       	cp	r24, r14
    25b6:	10 f0       	brcs	.+4      	; 0x25bc <RTC_Set_DateTime+0x46>
    25b8:	e0 92 e7 01 	sts	0x01E7, r14	; 0x8001e7 <RTC+0x5>
    25bc:	0d 30       	cpi	r16, 0x0D	; 13
    25be:	10 f4       	brcc	.+4      	; 0x25c4 <RTC_Set_DateTime+0x4e>
    25c0:	00 93 e6 01 	sts	0x01E6, r16	; 0x8001e6 <RTC+0x4>
    25c4:	80 91 e6 01 	lds	r24, 0x01E6	; 0x8001e6 <RTC+0x4>
    25c8:	82 30       	cpi	r24, 0x02	; 2
    25ca:	61 f4       	brne	.+24     	; 0x25e4 <RTC_Set_DateTime+0x6e>
    25cc:	0e 94 55 11 	call	0x22aa	; 0x22aa <RTC_not_leap>
    25d0:	88 23       	and	r24, r24
    25d2:	29 f0       	breq	.+10     	; 0x25de <RTC_Set_DateTime+0x68>
    25d4:	cd 31       	cpi	r28, 0x1D	; 29
    25d6:	18 f4       	brcc	.+6      	; 0x25de <RTC_Set_DateTime+0x68>
    25d8:	c0 93 e5 01 	sts	0x01E5, r28	; 0x8001e5 <RTC+0x3>
    25dc:	07 c0       	rjmp	.+14     	; 0x25ec <RTC_Set_DateTime+0x76>
    25de:	ce 31       	cpi	r28, 0x1E	; 30
    25e0:	d8 f3       	brcs	.-10     	; 0x25d8 <RTC_Set_DateTime+0x62>
    25e2:	04 c0       	rjmp	.+8      	; 0x25ec <RTC_Set_DateTime+0x76>
    25e4:	cf 31       	cpi	r28, 0x1F	; 31
    25e6:	c0 f3       	brcs	.-16     	; 0x25d8 <RTC_Set_DateTime+0x62>
    25e8:	cf 31       	cpi	r28, 0x1F	; 31
    25ea:	b1 f3       	breq	.-20     	; 0x25d8 <RTC_Set_DateTime+0x62>
    25ec:	81 e0       	ldi	r24, 0x01	; 1
    25ee:	80 93 ec 01 	sts	0x01EC, r24	; 0x8001ec <RTC+0xa>
    25f2:	cf 91       	pop	r28
    25f4:	0f 91       	pop	r16
    25f6:	ef 90       	pop	r14
    25f8:	08 95       	ret

000025fa <__vector_9>:
    25fa:	1f 92       	push	r1
    25fc:	0f 92       	push	r0
    25fe:	0f b6       	in	r0, 0x3f	; 63
    2600:	0f 92       	push	r0
    2602:	11 24       	eor	r1, r1
    2604:	8f 93       	push	r24
    2606:	ef 93       	push	r30
    2608:	ff 93       	push	r31
    260a:	e2 ee       	ldi	r30, 0xE2	; 226
    260c:	f1 e0       	ldi	r31, 0x01	; 1
    260e:	85 85       	ldd	r24, Z+13	; 0x0d
    2610:	8f 5f       	subi	r24, 0xFF	; 255
    2612:	85 87       	std	Z+13, r24	; 0x0d
    2614:	ff 91       	pop	r31
    2616:	ef 91       	pop	r30
    2618:	8f 91       	pop	r24
    261a:	0f 90       	pop	r0
    261c:	0f be       	out	0x3f, r0	; 63
    261e:	0f 90       	pop	r0
    2620:	1f 90       	pop	r1
    2622:	18 95       	reti

00002624 <Timer_Init>:
    2624:	10 92 80 00 	sts	0x0080, r1	; 0x800080 <__TEXT_REGION_LENGTH__+0x7e0080>
    2628:	89 e0       	ldi	r24, 0x09	; 9
    262a:	80 93 81 00 	sts	0x0081, r24	; 0x800081 <__TEXT_REGION_LENGTH__+0x7e0081>
    262e:	10 92 82 00 	sts	0x0082, r1	; 0x800082 <__TEXT_REGION_LENGTH__+0x7e0082>
    2632:	ef e6       	ldi	r30, 0x6F	; 111
    2634:	f0 e0       	ldi	r31, 0x00	; 0
    2636:	80 81       	ld	r24, Z
    2638:	82 60       	ori	r24, 0x02	; 2
    263a:	80 83       	st	Z, r24
    263c:	8f e3       	ldi	r24, 0x3F	; 63
    263e:	9f e1       	ldi	r25, 0x1F	; 31
    2640:	90 93 89 00 	sts	0x0089, r25	; 0x800089 <__TEXT_REGION_LENGTH__+0x7e0089>
    2644:	80 93 88 00 	sts	0x0088, r24	; 0x800088 <__TEXT_REGION_LENGTH__+0x7e0088>
    2648:	84 e2       	ldi	r24, 0x24	; 36
    264a:	86 bb       	out	0x16, r24	; 22
    264c:	08 95       	ret

0000264e <Pulse_reset>:
    264e:	ed e0       	ldi	r30, 0x0D	; 13
    2650:	f2 e0       	ldi	r31, 0x02	; 2
    2652:	10 82       	st	Z, r1
    2654:	11 82       	std	Z+1, r1	; 0x01
    2656:	12 82       	std	Z+2, r1	; 0x02
    2658:	13 82       	std	Z+3, r1	; 0x03
    265a:	08 95       	ret

0000265c <Timer_loop>:
    265c:	0e 94 27 13 	call	0x264e	; 0x264e <Pulse_reset>
    2660:	80 91 2d 01 	lds	r24, 0x012D	; 0x80012d <Timer_Flank>
    2664:	88 23       	and	r24, r24
    2666:	b9 f1       	breq	.+110    	; 0x26d6 <Timer_loop+0x7a>
    2668:	10 92 2d 01 	sts	0x012D, r1	; 0x80012d <Timer_Flank>
    266c:	51 e0       	ldi	r21, 0x01	; 1
    266e:	50 93 0d 02 	sts	0x020D, r21	; 0x80020d <Timers>
    2672:	40 91 11 02 	lds	r20, 0x0211	; 0x800211 <Timers+0x4>
    2676:	4f 5f       	subi	r20, 0xFF	; 255
    2678:	40 93 11 02 	sts	0x0211, r20	; 0x800211 <Timers+0x4>
    267c:	20 91 12 02 	lds	r18, 0x0212	; 0x800212 <Timers+0x5>
    2680:	30 91 13 02 	lds	r19, 0x0213	; 0x800213 <Timers+0x6>
    2684:	2f 5f       	subi	r18, 0xFF	; 255
    2686:	3f 4f       	sbci	r19, 0xFF	; 255
    2688:	30 93 13 02 	sts	0x0213, r19	; 0x800213 <Timers+0x6>
    268c:	20 93 12 02 	sts	0x0212, r18	; 0x800212 <Timers+0x5>
    2690:	80 91 14 02 	lds	r24, 0x0214	; 0x800214 <Timers+0x7>
    2694:	90 91 15 02 	lds	r25, 0x0215	; 0x800215 <Timers+0x8>
    2698:	01 96       	adiw	r24, 0x01	; 1
    269a:	90 93 15 02 	sts	0x0215, r25	; 0x800215 <Timers+0x8>
    269e:	80 93 14 02 	sts	0x0214, r24	; 0x800214 <Timers+0x7>
    26a2:	4a 30       	cpi	r20, 0x0A	; 10
    26a4:	20 f0       	brcs	.+8      	; 0x26ae <Timer_loop+0x52>
    26a6:	10 92 11 02 	sts	0x0211, r1	; 0x800211 <Timers+0x4>
    26aa:	50 93 0e 02 	sts	0x020E, r21	; 0x80020e <Timers+0x1>
    26ae:	24 36       	cpi	r18, 0x64	; 100
    26b0:	31 05       	cpc	r19, r1
    26b2:	38 f0       	brcs	.+14     	; 0x26c2 <Timer_loop+0x66>
    26b4:	10 92 13 02 	sts	0x0213, r1	; 0x800213 <Timers+0x6>
    26b8:	10 92 12 02 	sts	0x0212, r1	; 0x800212 <Timers+0x5>
    26bc:	21 e0       	ldi	r18, 0x01	; 1
    26be:	20 93 0f 02 	sts	0x020F, r18	; 0x80020f <Timers+0x2>
    26c2:	88 3e       	cpi	r24, 0xE8	; 232
    26c4:	93 40       	sbci	r25, 0x03	; 3
    26c6:	38 f0       	brcs	.+14     	; 0x26d6 <Timer_loop+0x7a>
    26c8:	10 92 15 02 	sts	0x0215, r1	; 0x800215 <Timers+0x8>
    26cc:	10 92 14 02 	sts	0x0214, r1	; 0x800214 <Timers+0x7>
    26d0:	81 e0       	ldi	r24, 0x01	; 1
    26d2:	80 93 10 02 	sts	0x0210, r24	; 0x800210 <Timers+0x3>
    26d6:	08 95       	ret

000026d8 <Timer_Pulse_1ms>:
    26d8:	80 91 0d 02 	lds	r24, 0x020D	; 0x80020d <Timers>
    26dc:	08 95       	ret

000026de <Timer_Pulse_10ms>:
    26de:	80 91 0e 02 	lds	r24, 0x020E	; 0x80020e <Timers+0x1>
    26e2:	08 95       	ret

000026e4 <Timer_Pulse_100ms>:
    26e4:	80 91 0f 02 	lds	r24, 0x020F	; 0x80020f <Timers+0x2>
    26e8:	08 95       	ret

000026ea <Timer_Pulse_1s>:
    26ea:	80 91 10 02 	lds	r24, 0x0210	; 0x800210 <Timers+0x3>
    26ee:	08 95       	ret

000026f0 <__vector_11>:
    26f0:	1f 92       	push	r1
    26f2:	0f 92       	push	r0
    26f4:	0f b6       	in	r0, 0x3f	; 63
    26f6:	0f 92       	push	r0
    26f8:	11 24       	eor	r1, r1
    26fa:	8f 93       	push	r24
    26fc:	80 91 2d 01 	lds	r24, 0x012D	; 0x80012d <Timer_Flank>
    2700:	8f 5f       	subi	r24, 0xFF	; 255
    2702:	80 93 2d 01 	sts	0x012D, r24	; 0x80012d <Timer_Flank>
    2706:	8f 91       	pop	r24
    2708:	0f 90       	pop	r0
    270a:	0f be       	out	0x3f, r0	; 63
    270c:	0f 90       	pop	r0
    270e:	1f 90       	pop	r1
    2710:	18 95       	reti

00002712 <__udivmodqi4>:
    2712:	99 1b       	sub	r25, r25
    2714:	79 e0       	ldi	r23, 0x09	; 9
    2716:	04 c0       	rjmp	.+8      	; 0x2720 <__udivmodqi4_ep>

00002718 <__udivmodqi4_loop>:
    2718:	99 1f       	adc	r25, r25
    271a:	96 17       	cp	r25, r22
    271c:	08 f0       	brcs	.+2      	; 0x2720 <__udivmodqi4_ep>
    271e:	96 1b       	sub	r25, r22

00002720 <__udivmodqi4_ep>:
    2720:	88 1f       	adc	r24, r24
    2722:	7a 95       	dec	r23
    2724:	c9 f7       	brne	.-14     	; 0x2718 <__udivmodqi4_loop>
    2726:	80 95       	com	r24
    2728:	08 95       	ret

0000272a <__udivmodhi4>:
    272a:	aa 1b       	sub	r26, r26
    272c:	bb 1b       	sub	r27, r27
    272e:	51 e1       	ldi	r21, 0x11	; 17
    2730:	07 c0       	rjmp	.+14     	; 0x2740 <__udivmodhi4_ep>

00002732 <__udivmodhi4_loop>:
    2732:	aa 1f       	adc	r26, r26
    2734:	bb 1f       	adc	r27, r27
    2736:	a6 17       	cp	r26, r22
    2738:	b7 07       	cpc	r27, r23
    273a:	10 f0       	brcs	.+4      	; 0x2740 <__udivmodhi4_ep>
    273c:	a6 1b       	sub	r26, r22
    273e:	b7 0b       	sbc	r27, r23

00002740 <__udivmodhi4_ep>:
    2740:	88 1f       	adc	r24, r24
    2742:	99 1f       	adc	r25, r25
    2744:	5a 95       	dec	r21
    2746:	a9 f7       	brne	.-22     	; 0x2732 <__udivmodhi4_loop>
    2748:	80 95       	com	r24
    274a:	90 95       	com	r25
    274c:	bc 01       	movw	r22, r24
    274e:	cd 01       	movw	r24, r26
    2750:	08 95       	ret

00002752 <__divmodhi4>:
    2752:	97 fb       	bst	r25, 7
    2754:	07 2e       	mov	r0, r23
    2756:	16 f4       	brtc	.+4      	; 0x275c <__divmodhi4+0xa>
    2758:	00 94       	com	r0
    275a:	07 d0       	rcall	.+14     	; 0x276a <__divmodhi4_neg1>
    275c:	77 fd       	sbrc	r23, 7
    275e:	09 d0       	rcall	.+18     	; 0x2772 <__divmodhi4_neg2>
    2760:	0e 94 95 13 	call	0x272a	; 0x272a <__udivmodhi4>
    2764:	07 fc       	sbrc	r0, 7
    2766:	05 d0       	rcall	.+10     	; 0x2772 <__divmodhi4_neg2>
    2768:	3e f4       	brtc	.+14     	; 0x2778 <__divmodhi4_exit>

0000276a <__divmodhi4_neg1>:
    276a:	90 95       	com	r25
    276c:	81 95       	neg	r24
    276e:	9f 4f       	sbci	r25, 0xFF	; 255
    2770:	08 95       	ret

00002772 <__divmodhi4_neg2>:
    2772:	70 95       	com	r23
    2774:	61 95       	neg	r22
    2776:	7f 4f       	sbci	r23, 0xFF	; 255

00002778 <__divmodhi4_exit>:
    2778:	08 95       	ret

0000277a <__tablejump2__>:
    277a:	ee 0f       	add	r30, r30
    277c:	ff 1f       	adc	r31, r31
    277e:	05 90       	lpm	r0, Z+
    2780:	f4 91       	lpm	r31, Z
    2782:	e0 2d       	mov	r30, r0
    2784:	09 94       	ijmp

00002786 <memcmp>:
    2786:	fb 01       	movw	r30, r22
    2788:	dc 01       	movw	r26, r24
    278a:	04 c0       	rjmp	.+8      	; 0x2794 <memcmp+0xe>
    278c:	8d 91       	ld	r24, X+
    278e:	01 90       	ld	r0, Z+
    2790:	80 19       	sub	r24, r0
    2792:	21 f4       	brne	.+8      	; 0x279c <memcmp+0x16>
    2794:	41 50       	subi	r20, 0x01	; 1
    2796:	50 40       	sbci	r21, 0x00	; 0
    2798:	c8 f7       	brcc	.-14     	; 0x278c <memcmp+0x6>
    279a:	88 1b       	sub	r24, r24
    279c:	99 0b       	sbc	r25, r25
    279e:	08 95       	ret

000027a0 <_exit>:
    27a0:	f8 94       	cli

000027a2 <__stop_program>:
    27a2:	ff cf       	rjmp	.-2      	; 0x27a2 <__stop_program>
