
NixieClock.elf:     file format elf32-avr

Sections:
Idx Name          Size      VMA       LMA       File off  Algn
  0 .data         00000000  00800100  00800100  00001de0  2**0
                  CONTENTS, ALLOC, LOAD, DATA
  1 .text         00001d6c  00000000  00000000  00000074  2**1
                  CONTENTS, ALLOC, LOAD, READONLY, CODE
  2 .bss          00000113  00800100  00800100  00001de0  2**0
                  ALLOC
  3 .comment      00000030  00000000  00000000  00001de0  2**0
                  CONTENTS, READONLY
  4 .note.gnu.avr.deviceinfo 0000003c  00000000  00000000  00001e10  2**2
                  CONTENTS, READONLY

Disassembly of section .text:

00000000 <__vectors>:
       0:	4e c0       	rjmp	.+156    	; 0x9e <__ctors_end>
       2:	5d c0       	rjmp	.+186    	; 0xbe <__bad_interrupt>
       4:	5c c0       	rjmp	.+184    	; 0xbe <__bad_interrupt>
       6:	5b c0       	rjmp	.+182    	; 0xbe <__bad_interrupt>
       8:	5a c0       	rjmp	.+180    	; 0xbe <__bad_interrupt>
       a:	59 c0       	rjmp	.+178    	; 0xbe <__bad_interrupt>
       c:	58 c0       	rjmp	.+176    	; 0xbe <__bad_interrupt>
       e:	57 c0       	rjmp	.+174    	; 0xbe <__bad_interrupt>
      10:	56 c0       	rjmp	.+172    	; 0xbe <__bad_interrupt>
      12:	55 c0       	rjmp	.+170    	; 0xbe <__bad_interrupt>
      14:	54 c0       	rjmp	.+168    	; 0xbe <__bad_interrupt>
      16:	53 c0       	rjmp	.+166    	; 0xbe <__bad_interrupt>
      18:	52 c0       	rjmp	.+164    	; 0xbe <__bad_interrupt>
      1a:	51 c0       	rjmp	.+162    	; 0xbe <__bad_interrupt>
      1c:	54 ce       	rjmp	.-856    	; 0xfffffcc6 <__eeprom_end+0xff7efcc6>
      1e:	4f c0       	rjmp	.+158    	; 0xbe <__bad_interrupt>
      20:	4e c0       	rjmp	.+156    	; 0xbe <__bad_interrupt>
      22:	4d c0       	rjmp	.+154    	; 0xbe <__bad_interrupt>
      24:	4c c0       	rjmp	.+152    	; 0xbe <__bad_interrupt>
      26:	4b c0       	rjmp	.+150    	; 0xbe <__bad_interrupt>
      28:	4a c0       	rjmp	.+148    	; 0xbe <__bad_interrupt>
      2a:	49 c0       	rjmp	.+146    	; 0xbe <__bad_interrupt>
      2c:	48 c0       	rjmp	.+144    	; 0xbe <__bad_interrupt>
      2e:	47 c0       	rjmp	.+142    	; 0xbe <__bad_interrupt>
      30:	46 c0       	rjmp	.+140    	; 0xbe <__bad_interrupt>
      32:	45 c0       	rjmp	.+138    	; 0xbe <__bad_interrupt>
      34:	5e c9       	rjmp	.-3396   	; 0xfffff2f2 <__eeprom_end+0xff7ef2f2>
      36:	64 c9       	rjmp	.-3384   	; 0xfffff300 <__eeprom_end+0xff7ef300>
      38:	69 c9       	rjmp	.-3374   	; 0xfffff30c <__eeprom_end+0xff7ef30c>
      3a:	d6 c9       	rjmp	.-3156   	; 0xfffff3e8 <__eeprom_end+0xff7ef3e8>
      3c:	d5 c9       	rjmp	.-3158   	; 0xfffff3e8 <__eeprom_end+0xff7ef3e8>
      3e:	d4 c9       	rjmp	.-3160   	; 0xfffff3e8 <__eeprom_end+0xff7ef3e8>
      40:	d3 c9       	rjmp	.-3162   	; 0xfffff3e8 <__eeprom_end+0xff7ef3e8>
      42:	d2 c9       	rjmp	.-3164   	; 0xfffff3e8 <__eeprom_end+0xff7ef3e8>
      44:	d1 c9       	rjmp	.-3166   	; 0xfffff3e8 <__eeprom_end+0xff7ef3e8>
      46:	d0 c9       	rjmp	.-3168   	; 0xfffff3e8 <__eeprom_end+0xff7ef3e8>
      48:	67 c9       	rjmp	.-3378   	; 0xfffff318 <__eeprom_end+0xff7ef318>
      4a:	6d c9       	rjmp	.-3366   	; 0xfffff326 <__eeprom_end+0xff7ef326>
      4c:	72 c9       	rjmp	.-3356   	; 0xfffff332 <__eeprom_end+0xff7ef332>
      4e:	cc c9       	rjmp	.-3176   	; 0xfffff3e8 <__eeprom_end+0xff7ef3e8>
      50:	cb c9       	rjmp	.-3178   	; 0xfffff3e8 <__eeprom_end+0xff7ef3e8>
      52:	ca c9       	rjmp	.-3180   	; 0xfffff3e8 <__eeprom_end+0xff7ef3e8>
      54:	c9 c9       	rjmp	.-3182   	; 0xfffff3e8 <__eeprom_end+0xff7ef3e8>
      56:	c8 c9       	rjmp	.-3184   	; 0xfffff3e8 <__eeprom_end+0xff7ef3e8>
      58:	c7 c9       	rjmp	.-3186   	; 0xfffff3e8 <__eeprom_end+0xff7ef3e8>
      5a:	78 c9       	rjmp	.-3344   	; 0xfffff34c <__eeprom_end+0xff7ef34c>
      5c:	82 c9       	rjmp	.-3324   	; 0xfffff362 <__eeprom_end+0xff7ef362>
      5e:	87 c9       	rjmp	.-3314   	; 0xfffff36e <__eeprom_end+0xff7ef36e>
      60:	c3 c9       	rjmp	.-3194   	; 0xfffff3e8 <__eeprom_end+0xff7ef3e8>
      62:	c2 c9       	rjmp	.-3196   	; 0xfffff3e8 <__eeprom_end+0xff7ef3e8>
      64:	c1 c9       	rjmp	.-3198   	; 0xfffff3e8 <__eeprom_end+0xff7ef3e8>
      66:	c0 c9       	rjmp	.-3200   	; 0xfffff3e8 <__eeprom_end+0xff7ef3e8>
      68:	bf c9       	rjmp	.-3202   	; 0xfffff3e8 <__eeprom_end+0xff7ef3e8>
      6a:	be c9       	rjmp	.-3204   	; 0xfffff3e8 <__eeprom_end+0xff7ef3e8>
      6c:	bd c9       	rjmp	.-3206   	; 0xfffff3e8 <__eeprom_end+0xff7ef3e8>
      6e:	85 c9       	rjmp	.-3318   	; 0xfffff37a <__eeprom_end+0xff7ef37a>
      70:	8f c9       	rjmp	.-3298   	; 0xfffff390 <__eeprom_end+0xff7ef390>
      72:	97 c9       	rjmp	.-3282   	; 0xfffff3a2 <__eeprom_end+0xff7ef3a2>
      74:	9f c9       	rjmp	.-3266   	; 0xfffff3b4 <__eeprom_end+0xff7ef3b4>
      76:	a4 c9       	rjmp	.-3256   	; 0xfffff3c0 <__eeprom_end+0xff7ef3c0>
      78:	a9 c9       	rjmp	.-3246   	; 0xfffff3cc <__eeprom_end+0xff7ef3cc>
      7a:	ae c9       	rjmp	.-3236   	; 0xfffff3d8 <__eeprom_end+0xff7ef3d8>
      7c:	c7 c9       	rjmp	.-3186   	; 0xfffff40c <__eeprom_end+0xff7ef40c>
      7e:	cb c9       	rjmp	.-3178   	; 0xfffff416 <__eeprom_end+0xff7ef416>
      80:	cd c9       	rjmp	.-3174   	; 0xfffff41c <__eeprom_end+0xff7ef41c>
      82:	15 ca       	rjmp	.-3030   	; 0xfffff4ae <__eeprom_end+0xff7ef4ae>
      84:	14 ca       	rjmp	.-3032   	; 0xfffff4ae <__eeprom_end+0xff7ef4ae>
      86:	13 ca       	rjmp	.-3034   	; 0xfffff4ae <__eeprom_end+0xff7ef4ae>
      88:	12 ca       	rjmp	.-3036   	; 0xfffff4ae <__eeprom_end+0xff7ef4ae>
      8a:	11 ca       	rjmp	.-3038   	; 0xfffff4ae <__eeprom_end+0xff7ef4ae>
      8c:	10 ca       	rjmp	.-3040   	; 0xfffff4ae <__eeprom_end+0xff7ef4ae>
      8e:	0f ca       	rjmp	.-3042   	; 0xfffff4ae <__eeprom_end+0xff7ef4ae>
      90:	ce c9       	rjmp	.-3172   	; 0xfffff42e <__eeprom_end+0xff7ef42e>
      92:	d2 c9       	rjmp	.-3164   	; 0xfffff438 <__eeprom_end+0xff7ef438>
      94:	d1 c9       	rjmp	.-3166   	; 0xfffff438 <__eeprom_end+0xff7ef438>
      96:	dc c9       	rjmp	.-3144   	; 0xfffff450 <__eeprom_end+0xff7ef450>
      98:	f2 c9       	rjmp	.-3100   	; 0xfffff47e <__eeprom_end+0xff7ef47e>
      9a:	e7 c9       	rjmp	.-3122   	; 0xfffff46a <__eeprom_end+0xff7ef46a>
      9c:	fb c9       	rjmp	.-3082   	; 0xfffff494 <__eeprom_end+0xff7ef494>

0000009e <__ctors_end>:
      9e:	11 24       	eor	r1, r1
      a0:	1f be       	out	0x3f, r1	; 63
      a2:	cf ef       	ldi	r28, 0xFF	; 255
      a4:	d4 e0       	ldi	r29, 0x04	; 4
      a6:	de bf       	out	0x3e, r29	; 62
      a8:	cd bf       	out	0x3d, r28	; 61

000000aa <__do_clear_bss>:
      aa:	22 e0       	ldi	r18, 0x02	; 2
      ac:	a0 e0       	ldi	r26, 0x00	; 0
      ae:	b1 e0       	ldi	r27, 0x01	; 1
      b0:	01 c0       	rjmp	.+2      	; 0xb4 <.do_clear_bss_start>

000000b2 <.do_clear_bss_loop>:
      b2:	1d 92       	st	X+, r1

000000b4 <.do_clear_bss_start>:
      b4:	a3 31       	cpi	r26, 0x13	; 19
      b6:	b2 07       	cpc	r27, r18
      b8:	e1 f7       	brne	.-8      	; 0xb2 <.do_clear_bss_loop>
      ba:	d3 db       	rcall	.-2138   	; 0xfffff862 <__eeprom_end+0xff7ef862>
      bc:	55 ce       	rjmp	.-854    	; 0xfffffd68 <__eeprom_end+0xff7efd68>

000000be <__bad_interrupt>:
      be:	a0 cf       	rjmp	.-192    	; 0x0 <__vectors>

000000c0 <Analog_Init>:
      c0:	ec e7       	ldi	r30, 0x7C	; 124
      c2:	f0 e0       	ldi	r31, 0x00	; 0
      c4:	80 81       	ld	r24, Z
      c6:	80 83       	st	Z, r24
      c8:	ea e7       	ldi	r30, 0x7A	; 122
      ca:	f0 e0       	ldi	r31, 0x00	; 0
      cc:	80 81       	ld	r24, Z
      ce:	86 68       	ori	r24, 0x86	; 134
      d0:	80 83       	st	Z, r24
      d2:	e0 e0       	ldi	r30, 0x00	; 0
      d4:	f1 e0       	ldi	r31, 0x01	; 1
      d6:	12 82       	std	Z+2, r1	; 0x02
      d8:	81 e0       	ldi	r24, 0x01	; 1
      da:	80 83       	st	Z, r24
      dc:	11 82       	std	Z+1, r1	; 0x01
      de:	08 95       	ret

000000e0 <Analog_loop>:
      e0:	80 91 00 01 	lds	r24, 0x0100	; 0x800100 <_edata>
      e4:	88 23       	and	r24, r24
      e6:	09 f4       	brne	.+2      	; 0xea <Analog_loop+0xa>
      e8:	77 c0       	rjmp	.+238    	; 0x1d8 <Analog_loop+0xf8>
      ea:	80 91 01 01 	lds	r24, 0x0101	; 0x800101 <_edata+0x1>
      ee:	81 30       	cpi	r24, 0x01	; 1
      f0:	f9 f0       	breq	.+62     	; 0x130 <Analog_loop+0x50>
      f2:	18 f0       	brcs	.+6      	; 0xfa <Analog_loop+0x1a>
      f4:	82 30       	cpi	r24, 0x02	; 2
      f6:	69 f1       	breq	.+90     	; 0x152 <Analog_loop+0x72>
      f8:	54 c0       	rjmp	.+168    	; 0x1a2 <Analog_loop+0xc2>
      fa:	80 91 02 01 	lds	r24, 0x0102	; 0x800102 <_edata+0x2>
      fe:	97 e0       	ldi	r25, 0x07	; 7
     100:	89 9f       	mul	r24, r25
     102:	f0 01       	movw	r30, r0
     104:	11 24       	eor	r1, r1
     106:	e0 50       	subi	r30, 0x00	; 0
     108:	ff 4f       	sbci	r31, 0xFF	; 255
     10a:	20 85       	ldd	r18, Z+8	; 0x08
     10c:	31 85       	ldd	r19, Z+9	; 0x09
     10e:	23 2b       	or	r18, r19
     110:	31 f4       	brne	.+12     	; 0x11e <Analog_loop+0x3e>
     112:	26 81       	ldd	r18, Z+6	; 0x06
     114:	37 81       	ldd	r19, Z+7	; 0x07
     116:	23 2b       	or	r18, r19
     118:	11 f0       	breq	.+4      	; 0x11e <Analog_loop+0x3e>
     11a:	81 e0       	ldi	r24, 0x01	; 1
     11c:	17 c0       	rjmp	.+46     	; 0x14c <Analog_loop+0x6c>
     11e:	8f 5f       	subi	r24, 0xFF	; 255
     120:	86 30       	cpi	r24, 0x06	; 6
     122:	18 f4       	brcc	.+6      	; 0x12a <Analog_loop+0x4a>
     124:	80 93 02 01 	sts	0x0102, r24	; 0x800102 <_edata+0x2>
     128:	3c c0       	rjmp	.+120    	; 0x1a2 <Analog_loop+0xc2>
     12a:	10 92 02 01 	sts	0x0102, r1	; 0x800102 <_edata+0x2>
     12e:	39 c0       	rjmp	.+114    	; 0x1a2 <Analog_loop+0xc2>
     130:	80 91 7c 00 	lds	r24, 0x007C	; 0x80007c <__EEPROM_REGION_LENGTH__+0x7f007c>
     134:	80 7f       	andi	r24, 0xF0	; 240
     136:	90 91 02 01 	lds	r25, 0x0102	; 0x800102 <_edata+0x2>
     13a:	89 0f       	add	r24, r25
     13c:	80 93 7c 00 	sts	0x007C, r24	; 0x80007c <__EEPROM_REGION_LENGTH__+0x7f007c>
     140:	80 91 7a 00 	lds	r24, 0x007A	; 0x80007a <__EEPROM_REGION_LENGTH__+0x7f007a>
     144:	80 64       	ori	r24, 0x40	; 64
     146:	80 93 7a 00 	sts	0x007A, r24	; 0x80007a <__EEPROM_REGION_LENGTH__+0x7f007a>
     14a:	82 e0       	ldi	r24, 0x02	; 2
     14c:	80 93 01 01 	sts	0x0101, r24	; 0x800101 <_edata+0x1>
     150:	28 c0       	rjmp	.+80     	; 0x1a2 <Analog_loop+0xc2>
     152:	80 91 7a 00 	lds	r24, 0x007A	; 0x80007a <__EEPROM_REGION_LENGTH__+0x7f007a>
     156:	86 fd       	sbrc	r24, 6
     158:	24 c0       	rjmp	.+72     	; 0x1a2 <Analog_loop+0xc2>
     15a:	20 91 02 01 	lds	r18, 0x0102	; 0x800102 <_edata+0x2>
     15e:	30 91 78 00 	lds	r19, 0x0078	; 0x800078 <__EEPROM_REGION_LENGTH__+0x7f0078>
     162:	80 91 79 00 	lds	r24, 0x0079	; 0x800079 <__EEPROM_REGION_LENGTH__+0x7f0079>
     166:	97 e0       	ldi	r25, 0x07	; 7
     168:	29 9f       	mul	r18, r25
     16a:	f0 01       	movw	r30, r0
     16c:	11 24       	eor	r1, r1
     16e:	e0 50       	subi	r30, 0x00	; 0
     170:	ff 4f       	sbci	r31, 0xFF	; 255
     172:	90 e0       	ldi	r25, 0x00	; 0
     174:	98 2f       	mov	r25, r24
     176:	88 27       	eor	r24, r24
     178:	83 0f       	add	r24, r19
     17a:	91 1d       	adc	r25, r1
     17c:	95 83       	std	Z+5, r25	; 0x05
     17e:	84 83       	std	Z+4, r24	; 0x04
     180:	81 e0       	ldi	r24, 0x01	; 1
     182:	83 83       	std	Z+3, r24	; 0x03
     184:	86 81       	ldd	r24, Z+6	; 0x06
     186:	97 81       	ldd	r25, Z+7	; 0x07
     188:	91 87       	std	Z+9, r25	; 0x09
     18a:	80 87       	std	Z+8, r24	; 0x08
     18c:	81 e0       	ldi	r24, 0x01	; 1
     18e:	82 0f       	add	r24, r18
     190:	86 30       	cpi	r24, 0x06	; 6
     192:	18 f4       	brcc	.+6      	; 0x19a <Analog_loop+0xba>
     194:	80 93 02 01 	sts	0x0102, r24	; 0x800102 <_edata+0x2>
     198:	02 c0       	rjmp	.+4      	; 0x19e <Analog_loop+0xbe>
     19a:	10 92 02 01 	sts	0x0102, r1	; 0x800102 <_edata+0x2>
     19e:	10 92 01 01 	sts	0x0101, r1	; 0x800101 <_edata+0x1>
     1a2:	88 dd       	rcall	.-1264   	; 0xfffffcb4 <__eeprom_end+0xff7efcb4>
     1a4:	e0 e0       	ldi	r30, 0x00	; 0
     1a6:	f1 e0       	ldi	r31, 0x01	; 1
     1a8:	20 85       	ldd	r18, Z+8	; 0x08
     1aa:	31 85       	ldd	r19, Z+9	; 0x09
     1ac:	21 15       	cp	r18, r1
     1ae:	31 05       	cpc	r19, r1
     1b0:	41 f0       	breq	.+16     	; 0x1c2 <Analog_loop+0xe2>
     1b2:	61 e0       	ldi	r22, 0x01	; 1
     1b4:	90 e0       	ldi	r25, 0x00	; 0
     1b6:	81 11       	cpse	r24, r1
     1b8:	01 c0       	rjmp	.+2      	; 0x1bc <Analog_loop+0xdc>
     1ba:	60 e0       	ldi	r22, 0x00	; 0
     1bc:	46 2f       	mov	r20, r22
     1be:	59 2f       	mov	r21, r25
     1c0:	02 c0       	rjmp	.+4      	; 0x1c6 <Analog_loop+0xe6>
     1c2:	40 e0       	ldi	r20, 0x00	; 0
     1c4:	50 e0       	ldi	r21, 0x00	; 0
     1c6:	24 1b       	sub	r18, r20
     1c8:	35 0b       	sbc	r19, r21
     1ca:	31 87       	std	Z+9, r19	; 0x09
     1cc:	20 87       	std	Z+8, r18	; 0x08
     1ce:	37 96       	adiw	r30, 0x07	; 7
     1d0:	91 e0       	ldi	r25, 0x01	; 1
     1d2:	ea 32       	cpi	r30, 0x2A	; 42
     1d4:	f9 07       	cpc	r31, r25
     1d6:	41 f7       	brne	.-48     	; 0x1a8 <Analog_loop+0xc8>
     1d8:	08 95       	ret

000001da <Analog_Channel_Init>:
     1da:	86 30       	cpi	r24, 0x06	; 6
     1dc:	50 f4       	brcc	.+20     	; 0x1f2 <Analog_Channel_Init+0x18>
     1de:	97 e0       	ldi	r25, 0x07	; 7
     1e0:	89 9f       	mul	r24, r25
     1e2:	f0 01       	movw	r30, r0
     1e4:	11 24       	eor	r1, r1
     1e6:	e0 50       	subi	r30, 0x00	; 0
     1e8:	ff 4f       	sbci	r31, 0xFF	; 255
     1ea:	77 83       	std	Z+7, r23	; 0x07
     1ec:	66 83       	std	Z+6, r22	; 0x06
     1ee:	81 e0       	ldi	r24, 0x01	; 1
     1f0:	08 95       	ret
     1f2:	8f ef       	ldi	r24, 0xFF	; 255
     1f4:	08 95       	ret

000001f6 <Analog_Channel_Read>:
     1f6:	28 2f       	mov	r18, r24
     1f8:	30 e0       	ldi	r19, 0x00	; 0
     1fa:	97 e0       	ldi	r25, 0x07	; 7
     1fc:	89 9f       	mul	r24, r25
     1fe:	f0 01       	movw	r30, r0
     200:	11 24       	eor	r1, r1
     202:	e0 50       	subi	r30, 0x00	; 0
     204:	ff 4f       	sbci	r31, 0xFF	; 255
     206:	83 81       	ldd	r24, Z+3	; 0x03
     208:	81 11       	cpse	r24, r1
     20a:	13 82       	std	Z+3, r1	; 0x03
     20c:	87 e0       	ldi	r24, 0x07	; 7
     20e:	82 9f       	mul	r24, r18
     210:	f0 01       	movw	r30, r0
     212:	83 9f       	mul	r24, r19
     214:	f0 0d       	add	r31, r0
     216:	11 24       	eor	r1, r1
     218:	e0 50       	subi	r30, 0x00	; 0
     21a:	ff 4f       	sbci	r31, 0xFF	; 255
     21c:	84 81       	ldd	r24, Z+4	; 0x04
     21e:	95 81       	ldd	r25, Z+5	; 0x05
     220:	08 95       	ret

00000222 <Analog_Channel_Ready>:
     222:	27 e0       	ldi	r18, 0x07	; 7
     224:	82 9f       	mul	r24, r18
     226:	c0 01       	movw	r24, r0
     228:	11 24       	eor	r1, r1
     22a:	fc 01       	movw	r30, r24
     22c:	e0 50       	subi	r30, 0x00	; 0
     22e:	ff 4f       	sbci	r31, 0xFF	; 255
     230:	83 81       	ldd	r24, Z+3	; 0x03
     232:	08 95       	ret

00000234 <BCDToDecimal>:
     234:	98 2f       	mov	r25, r24
     236:	90 7f       	andi	r25, 0xF0	; 240
     238:	90 3a       	cpi	r25, 0xA0	; 160
     23a:	60 f4       	brcc	.+24     	; 0x254 <BCDToDecimal+0x20>
     23c:	98 2f       	mov	r25, r24
     23e:	9f 70       	andi	r25, 0x0F	; 15
     240:	9a 30       	cpi	r25, 0x0A	; 10
     242:	40 f4       	brcc	.+16     	; 0x254 <BCDToDecimal+0x20>
     244:	82 95       	swap	r24
     246:	8f 70       	andi	r24, 0x0F	; 15
     248:	2a e0       	ldi	r18, 0x0A	; 10
     24a:	82 9f       	mul	r24, r18
     24c:	90 0d       	add	r25, r0
     24e:	11 24       	eor	r1, r1
     250:	89 2f       	mov	r24, r25
     252:	08 95       	ret
     254:	80 e0       	ldi	r24, 0x00	; 0
     256:	08 95       	ret

00000258 <DecimalToBCD>:
     258:	28 2f       	mov	r18, r24
     25a:	84 36       	cpi	r24, 0x64	; 100
     25c:	80 f4       	brcc	.+32     	; 0x27e <DecimalToBCD+0x26>
     25e:	6a e0       	ldi	r22, 0x0A	; 10
     260:	43 dd       	rcall	.-1402   	; 0xfffffce8 <__eeprom_end+0xff7efce8>
     262:	39 2f       	mov	r19, r25
     264:	82 2f       	mov	r24, r18
     266:	90 e0       	ldi	r25, 0x00	; 0
     268:	83 1b       	sub	r24, r19
     26a:	91 09       	sbc	r25, r1
     26c:	6a e0       	ldi	r22, 0x0A	; 10
     26e:	70 e0       	ldi	r23, 0x00	; 0
     270:	5b dd       	rcall	.-1354   	; 0xfffffd28 <__eeprom_end+0xff7efd28>
     272:	83 2f       	mov	r24, r19
     274:	90 e1       	ldi	r25, 0x10	; 16
     276:	69 9f       	mul	r22, r25
     278:	80 0d       	add	r24, r0
     27a:	11 24       	eor	r1, r1
     27c:	08 95       	ret
     27e:	80 e0       	ldi	r24, 0x00	; 0
     280:	08 95       	ret

00000282 <DS1307_Loop>:
     282:	0f 93       	push	r16
     284:	80 91 3b 01 	lds	r24, 0x013B	; 0x80013b <DS1307+0xd>
     288:	8b 30       	cpi	r24, 0x0B	; 11
     28a:	09 f4       	brne	.+2      	; 0x28e <DS1307_Loop+0xc>
     28c:	64 c1       	rjmp	.+712    	; 0x556 <__stack+0x57>
     28e:	90 f4       	brcc	.+36     	; 0x2b4 <DS1307_Loop+0x32>
     290:	82 30       	cpi	r24, 0x02	; 2
     292:	09 f4       	brne	.+2      	; 0x296 <DS1307_Loop+0x14>
     294:	46 c0       	rjmp	.+140    	; 0x322 <DS1307_Loop+0xa0>
     296:	28 f4       	brcc	.+10     	; 0x2a2 <DS1307_Loop+0x20>
     298:	88 23       	and	r24, r24
     29a:	09 f1       	breq	.+66     	; 0x2de <DS1307_Loop+0x5c>
     29c:	81 30       	cpi	r24, 0x01	; 1
     29e:	79 f1       	breq	.+94     	; 0x2fe <DS1307_Loop+0x7c>
     2a0:	b0 c2       	rjmp	.+1376   	; 0x802 <__stack+0x303>
     2a2:	84 30       	cpi	r24, 0x04	; 4
     2a4:	09 f4       	brne	.+2      	; 0x2a8 <DS1307_Loop+0x26>
     2a6:	b3 c0       	rjmp	.+358    	; 0x40e <__FUSE_REGION_LENGTH__+0xe>
     2a8:	08 f4       	brcc	.+2      	; 0x2ac <DS1307_Loop+0x2a>
     2aa:	80 c0       	rjmp	.+256    	; 0x3ac <DS1307_Loop+0x12a>
     2ac:	85 30       	cpi	r24, 0x05	; 5
     2ae:	09 f4       	brne	.+2      	; 0x2b2 <DS1307_Loop+0x30>
     2b0:	16 c1       	rjmp	.+556    	; 0x4de <__FUSE_REGION_LENGTH__+0xde>
     2b2:	a7 c2       	rjmp	.+1358   	; 0x802 <__stack+0x303>
     2b4:	8e 30       	cpi	r24, 0x0E	; 14
     2b6:	09 f4       	brne	.+2      	; 0x2ba <DS1307_Loop+0x38>
     2b8:	1b c2       	rjmp	.+1078   	; 0x6f0 <__stack+0x1f1>
     2ba:	38 f4       	brcc	.+14     	; 0x2ca <DS1307_Loop+0x48>
     2bc:	8c 30       	cpi	r24, 0x0C	; 12
     2be:	09 f4       	brne	.+2      	; 0x2c2 <DS1307_Loop+0x40>
     2c0:	92 c1       	rjmp	.+804    	; 0x5e6 <__stack+0xe7>
     2c2:	8d 30       	cpi	r24, 0x0D	; 13
     2c4:	09 f4       	brne	.+2      	; 0x2c8 <DS1307_Loop+0x46>
     2c6:	bc c1       	rjmp	.+888    	; 0x640 <__stack+0x141>
     2c8:	9c c2       	rjmp	.+1336   	; 0x802 <__stack+0x303>
     2ca:	86 31       	cpi	r24, 0x16	; 22
     2cc:	09 f4       	brne	.+2      	; 0x2d0 <DS1307_Loop+0x4e>
     2ce:	65 c2       	rjmp	.+1226   	; 0x79a <__stack+0x29b>
     2d0:	83 36       	cpi	r24, 0x63	; 99
     2d2:	09 f4       	brne	.+2      	; 0x2d6 <DS1307_Loop+0x54>
     2d4:	78 c2       	rjmp	.+1264   	; 0x7c6 <__stack+0x2c7>
     2d6:	85 31       	cpi	r24, 0x15	; 21
     2d8:	09 f0       	breq	.+2      	; 0x2dc <DS1307_Loop+0x5a>
     2da:	93 c2       	rjmp	.+1318   	; 0x802 <__stack+0x303>
     2dc:	39 c2       	rjmp	.+1138   	; 0x750 <__stack+0x251>
     2de:	80 91 3a 01 	lds	r24, 0x013A	; 0x80013a <DS1307+0xc>
     2e2:	88 23       	and	r24, r24
     2e4:	31 f0       	breq	.+12     	; 0x2f2 <DS1307_Loop+0x70>
     2e6:	80 91 41 01 	lds	r24, 0x0141	; 0x800141 <DS1307+0x13>
     2ea:	88 23       	and	r24, r24
     2ec:	09 f4       	brne	.+2      	; 0x2f0 <DS1307_Loop+0x6e>
     2ee:	89 c2       	rjmp	.+1298   	; 0x802 <__stack+0x303>
     2f0:	51 c2       	rjmp	.+1186   	; 0x794 <__stack+0x295>
     2f2:	80 91 3c 01 	lds	r24, 0x013C	; 0x80013c <DS1307+0xe>
     2f6:	81 11       	cpse	r24, r1
     2f8:	88 c2       	rjmp	.+1296   	; 0x80a <__stack+0x30b>
     2fa:	81 e0       	ldi	r24, 0x01	; 1
     2fc:	0f c0       	rjmp	.+30     	; 0x31c <DS1307_Loop+0x9a>
     2fe:	80 91 3f 01 	lds	r24, 0x013F	; 0x80013f <DS1307+0x11>
     302:	81 11       	cpse	r24, r1
     304:	06 c0       	rjmp	.+12     	; 0x312 <DS1307_Loop+0x90>
     306:	68 e6       	ldi	r22, 0x68	; 104
     308:	87 e0       	ldi	r24, 0x07	; 7
     30a:	74 d5       	rcall	.+2792   	; 0xdf4 <I2C_Get_Ident>
     30c:	80 93 3f 01 	sts	0x013F, r24	; 0x80013f <DS1307+0x11>
     310:	78 c2       	rjmp	.+1264   	; 0x802 <__stack+0x303>
     312:	29 d5       	rcall	.+2642   	; 0xd66 <I2C_Ready>
     314:	88 23       	and	r24, r24
     316:	09 f4       	brne	.+2      	; 0x31a <DS1307_Loop+0x98>
     318:	74 c2       	rjmp	.+1256   	; 0x802 <__stack+0x303>
     31a:	85 e0       	ldi	r24, 0x05	; 5
     31c:	80 93 41 01 	sts	0x0141, r24	; 0x800141 <DS1307+0x13>
     320:	39 c2       	rjmp	.+1138   	; 0x794 <__stack+0x295>
     322:	80 91 3f 01 	lds	r24, 0x013F	; 0x80013f <DS1307+0x11>
     326:	1f d5       	rcall	.+2622   	; 0xd66 <I2C_Ready>
     328:	90 91 3e 01 	lds	r25, 0x013E	; 0x80013e <DS1307+0x10>
     32c:	88 23       	and	r24, r24
     32e:	41 f0       	breq	.+16     	; 0x340 <DS1307_Loop+0xbe>
     330:	91 11       	cpse	r25, r1
     332:	06 c0       	rjmp	.+12     	; 0x340 <DS1307_Loop+0xbe>
     334:	10 92 44 01 	sts	0x0144, r1	; 0x800144 <DS1307+0x16>
     338:	00 91 3f 01 	lds	r16, 0x013F	; 0x80013f <DS1307+0x11>
     33c:	23 e0       	ldi	r18, 0x03	; 3
     33e:	de c0       	rjmp	.+444    	; 0x4fc <__FUSE_REGION_LENGTH__+0xfc>
     340:	99 23       	and	r25, r25
     342:	09 f4       	brne	.+2      	; 0x346 <DS1307_Loop+0xc4>
     344:	5e c2       	rjmp	.+1212   	; 0x802 <__stack+0x303>
     346:	10 92 3e 01 	sts	0x013E, r1	; 0x80013e <DS1307+0x10>
     34a:	80 91 45 01 	lds	r24, 0x0145	; 0x800145 <DS1307+0x17>
     34e:	8f 77       	andi	r24, 0x7F	; 127
     350:	71 df       	rcall	.-286    	; 0x234 <BCDToDecimal>
     352:	80 93 2e 01 	sts	0x012E, r24	; 0x80012e <DS1307>
     356:	80 91 46 01 	lds	r24, 0x0146	; 0x800146 <DS1307+0x18>
     35a:	8f 77       	andi	r24, 0x7F	; 127
     35c:	6b df       	rcall	.-298    	; 0x234 <BCDToDecimal>
     35e:	80 93 2f 01 	sts	0x012F, r24	; 0x80012f <DS1307+0x1>
     362:	90 91 35 01 	lds	r25, 0x0135	; 0x800135 <DS1307+0x7>
     366:	80 91 47 01 	lds	r24, 0x0147	; 0x800147 <DS1307+0x19>
     36a:	99 23       	and	r25, r25
     36c:	51 f0       	breq	.+20     	; 0x382 <DS1307_Loop+0x100>
     36e:	8f 71       	andi	r24, 0x1F	; 31
     370:	61 df       	rcall	.-318    	; 0x234 <BCDToDecimal>
     372:	80 93 30 01 	sts	0x0130, r24	; 0x800130 <DS1307+0x2>
     376:	80 91 47 01 	lds	r24, 0x0147	; 0x800147 <DS1307+0x19>
     37a:	80 72       	andi	r24, 0x20	; 32
     37c:	80 93 3d 01 	sts	0x013D, r24	; 0x80013d <DS1307+0xf>
     380:	04 c0       	rjmp	.+8      	; 0x38a <DS1307_Loop+0x108>
     382:	8f 73       	andi	r24, 0x3F	; 63
     384:	57 df       	rcall	.-338    	; 0x234 <BCDToDecimal>
     386:	80 93 30 01 	sts	0x0130, r24	; 0x800130 <DS1307+0x2>
     38a:	e0 91 42 01 	lds	r30, 0x0142	; 0x800142 <DS1307+0x14>
     38e:	f0 91 43 01 	lds	r31, 0x0143	; 0x800143 <DS1307+0x15>
     392:	30 97       	sbiw	r30, 0x00	; 0
     394:	09 f4       	brne	.+2      	; 0x398 <DS1307_Loop+0x116>
     396:	33 c1       	rjmp	.+614    	; 0x5fe <__stack+0xff>
     398:	80 91 2e 01 	lds	r24, 0x012E	; 0x80012e <DS1307>
     39c:	90 91 2f 01 	lds	r25, 0x012F	; 0x80012f <DS1307+0x1>
     3a0:	a0 91 30 01 	lds	r26, 0x0130	; 0x800130 <DS1307+0x2>
     3a4:	80 83       	st	Z, r24
     3a6:	91 83       	std	Z+1, r25	; 0x01
     3a8:	a2 83       	std	Z+2, r26	; 0x02
     3aa:	29 c1       	rjmp	.+594    	; 0x5fe <__stack+0xff>
     3ac:	80 91 3f 01 	lds	r24, 0x013F	; 0x80013f <DS1307+0x11>
     3b0:	da d4       	rcall	.+2484   	; 0xd66 <I2C_Ready>
     3b2:	90 91 3e 01 	lds	r25, 0x013E	; 0x80013e <DS1307+0x10>
     3b6:	88 23       	and	r24, r24
     3b8:	31 f0       	breq	.+12     	; 0x3c6 <DS1307_Loop+0x144>
     3ba:	91 11       	cpse	r25, r1
     3bc:	04 c0       	rjmp	.+8      	; 0x3c6 <DS1307_Loop+0x144>
     3be:	84 e0       	ldi	r24, 0x04	; 4
     3c0:	80 93 44 01 	sts	0x0144, r24	; 0x800144 <DS1307+0x16>
     3c4:	2f c0       	rjmp	.+94     	; 0x424 <__FUSE_REGION_LENGTH__+0x24>
     3c6:	99 23       	and	r25, r25
     3c8:	09 f4       	brne	.+2      	; 0x3cc <DS1307_Loop+0x14a>
     3ca:	1b c2       	rjmp	.+1078   	; 0x802 <__stack+0x303>
     3cc:	10 92 3e 01 	sts	0x013E, r1	; 0x80013e <DS1307+0x10>
     3d0:	80 91 45 01 	lds	r24, 0x0145	; 0x800145 <DS1307+0x17>
     3d4:	8f 73       	andi	r24, 0x3F	; 63
     3d6:	2e df       	rcall	.-420    	; 0x234 <BCDToDecimal>
     3d8:	80 93 31 01 	sts	0x0131, r24	; 0x800131 <DS1307+0x3>
     3dc:	80 91 46 01 	lds	r24, 0x0146	; 0x800146 <DS1307+0x18>
     3e0:	8f 71       	andi	r24, 0x1F	; 31
     3e2:	28 df       	rcall	.-432    	; 0x234 <BCDToDecimal>
     3e4:	80 93 32 01 	sts	0x0132, r24	; 0x800132 <DS1307+0x4>
     3e8:	80 91 47 01 	lds	r24, 0x0147	; 0x800147 <DS1307+0x19>
     3ec:	23 df       	rcall	.-442    	; 0x234 <BCDToDecimal>
     3ee:	80 93 33 01 	sts	0x0133, r24	; 0x800133 <DS1307+0x5>
     3f2:	e0 91 42 01 	lds	r30, 0x0142	; 0x800142 <DS1307+0x14>
     3f6:	f0 91 43 01 	lds	r31, 0x0143	; 0x800143 <DS1307+0x15>
     3fa:	30 97       	sbiw	r30, 0x00	; 0
     3fc:	09 f4       	brne	.+2      	; 0x400 <__FUSE_REGION_LENGTH__>
     3fe:	ff c0       	rjmp	.+510    	; 0x5fe <__stack+0xff>
     400:	80 91 31 01 	lds	r24, 0x0131	; 0x800131 <DS1307+0x3>
     404:	90 91 32 01 	lds	r25, 0x0132	; 0x800132 <DS1307+0x4>
     408:	a0 91 33 01 	lds	r26, 0x0133	; 0x800133 <DS1307+0x5>
     40c:	cb cf       	rjmp	.-106    	; 0x3a4 <DS1307_Loop+0x122>
     40e:	80 91 3f 01 	lds	r24, 0x013F	; 0x80013f <DS1307+0x11>
     412:	a9 d4       	rcall	.+2386   	; 0xd66 <I2C_Ready>
     414:	90 91 3e 01 	lds	r25, 0x013E	; 0x80013e <DS1307+0x10>
     418:	88 23       	and	r24, r24
     41a:	41 f0       	breq	.+16     	; 0x42c <__FUSE_REGION_LENGTH__+0x2c>
     41c:	91 11       	cpse	r25, r1
     41e:	06 c0       	rjmp	.+12     	; 0x42c <__FUSE_REGION_LENGTH__+0x2c>
     420:	10 92 44 01 	sts	0x0144, r1	; 0x800144 <DS1307+0x16>
     424:	00 91 3f 01 	lds	r16, 0x013F	; 0x80013f <DS1307+0x11>
     428:	27 e0       	ldi	r18, 0x07	; 7
     42a:	68 c0       	rjmp	.+208    	; 0x4fc <__FUSE_REGION_LENGTH__+0xfc>
     42c:	99 23       	and	r25, r25
     42e:	09 f4       	brne	.+2      	; 0x432 <__FUSE_REGION_LENGTH__+0x32>
     430:	e8 c1       	rjmp	.+976    	; 0x802 <__stack+0x303>
     432:	10 92 3e 01 	sts	0x013E, r1	; 0x80013e <DS1307+0x10>
     436:	90 91 3a 01 	lds	r25, 0x013A	; 0x80013a <DS1307+0xc>
     43a:	80 91 45 01 	lds	r24, 0x0145	; 0x800145 <DS1307+0x17>
     43e:	91 11       	cpse	r25, r1
     440:	10 c0       	rjmp	.+32     	; 0x462 <__FUSE_REGION_LENGTH__+0x62>
     442:	98 2f       	mov	r25, r24
     444:	99 1f       	adc	r25, r25
     446:	99 27       	eor	r25, r25
     448:	99 1f       	adc	r25, r25
     44a:	90 93 34 01 	sts	0x0134, r25	; 0x800134 <DS1307+0x6>
     44e:	20 91 47 01 	lds	r18, 0x0147	; 0x800147 <DS1307+0x19>
     452:	91 e0       	ldi	r25, 0x01	; 1
     454:	26 ff       	sbrs	r18, 6
     456:	90 e0       	ldi	r25, 0x00	; 0
     458:	90 93 35 01 	sts	0x0135, r25	; 0x800135 <DS1307+0x7>
     45c:	91 e0       	ldi	r25, 0x01	; 1
     45e:	90 93 3a 01 	sts	0x013A, r25	; 0x80013a <DS1307+0xc>
     462:	8f 77       	andi	r24, 0x7F	; 127
     464:	e7 de       	rcall	.-562    	; 0x234 <BCDToDecimal>
     466:	80 93 2e 01 	sts	0x012E, r24	; 0x80012e <DS1307>
     46a:	80 91 46 01 	lds	r24, 0x0146	; 0x800146 <DS1307+0x18>
     46e:	8f 77       	andi	r24, 0x7F	; 127
     470:	e1 de       	rcall	.-574    	; 0x234 <BCDToDecimal>
     472:	80 93 2f 01 	sts	0x012F, r24	; 0x80012f <DS1307+0x1>
     476:	90 91 35 01 	lds	r25, 0x0135	; 0x800135 <DS1307+0x7>
     47a:	80 91 47 01 	lds	r24, 0x0147	; 0x800147 <DS1307+0x19>
     47e:	99 23       	and	r25, r25
     480:	51 f0       	breq	.+20     	; 0x496 <__FUSE_REGION_LENGTH__+0x96>
     482:	8f 71       	andi	r24, 0x1F	; 31
     484:	d7 de       	rcall	.-594    	; 0x234 <BCDToDecimal>
     486:	80 93 30 01 	sts	0x0130, r24	; 0x800130 <DS1307+0x2>
     48a:	80 91 47 01 	lds	r24, 0x0147	; 0x800147 <DS1307+0x19>
     48e:	80 72       	andi	r24, 0x20	; 32
     490:	80 93 3d 01 	sts	0x013D, r24	; 0x80013d <DS1307+0xf>
     494:	04 c0       	rjmp	.+8      	; 0x49e <__FUSE_REGION_LENGTH__+0x9e>
     496:	8f 73       	andi	r24, 0x3F	; 63
     498:	cd de       	rcall	.-614    	; 0x234 <BCDToDecimal>
     49a:	80 93 30 01 	sts	0x0130, r24	; 0x800130 <DS1307+0x2>
     49e:	80 91 49 01 	lds	r24, 0x0149	; 0x800149 <DS1307+0x1b>
     4a2:	8f 73       	andi	r24, 0x3F	; 63
     4a4:	c7 de       	rcall	.-626    	; 0x234 <BCDToDecimal>
     4a6:	80 93 31 01 	sts	0x0131, r24	; 0x800131 <DS1307+0x3>
     4aa:	80 91 4a 01 	lds	r24, 0x014A	; 0x80014a <DS1307+0x1c>
     4ae:	8f 71       	andi	r24, 0x1F	; 31
     4b0:	c1 de       	rcall	.-638    	; 0x234 <BCDToDecimal>
     4b2:	80 93 32 01 	sts	0x0132, r24	; 0x800132 <DS1307+0x4>
     4b6:	80 91 4b 01 	lds	r24, 0x014B	; 0x80014b <DS1307+0x1d>
     4ba:	bc de       	rcall	.-648    	; 0x234 <BCDToDecimal>
     4bc:	80 93 33 01 	sts	0x0133, r24	; 0x800133 <DS1307+0x5>
     4c0:	a0 91 42 01 	lds	r26, 0x0142	; 0x800142 <DS1307+0x14>
     4c4:	b0 91 43 01 	lds	r27, 0x0143	; 0x800143 <DS1307+0x15>
     4c8:	10 97       	sbiw	r26, 0x00	; 0
     4ca:	09 f4       	brne	.+2      	; 0x4ce <__FUSE_REGION_LENGTH__+0xce>
     4cc:	98 c0       	rjmp	.+304    	; 0x5fe <__stack+0xff>
     4ce:	86 e0       	ldi	r24, 0x06	; 6
     4d0:	ee e2       	ldi	r30, 0x2E	; 46
     4d2:	f1 e0       	ldi	r31, 0x01	; 1
     4d4:	01 90       	ld	r0, Z+
     4d6:	0d 92       	st	X+, r0
     4d8:	8a 95       	dec	r24
     4da:	e1 f7       	brne	.-8      	; 0x4d4 <__FUSE_REGION_LENGTH__+0xd4>
     4dc:	90 c0       	rjmp	.+288    	; 0x5fe <__stack+0xff>
     4de:	80 91 3f 01 	lds	r24, 0x013F	; 0x80013f <DS1307+0x11>
     4e2:	41 d4       	rcall	.+2178   	; 0xd66 <I2C_Ready>
     4e4:	90 91 3e 01 	lds	r25, 0x013E	; 0x80013e <DS1307+0x10>
     4e8:	88 23       	and	r24, r24
     4ea:	79 f0       	breq	.+30     	; 0x50a <__stack+0xb>
     4ec:	91 11       	cpse	r25, r1
     4ee:	0d c0       	rjmp	.+26     	; 0x50a <__stack+0xb>
     4f0:	87 e0       	ldi	r24, 0x07	; 7
     4f2:	80 93 44 01 	sts	0x0144, r24	; 0x800144 <DS1307+0x16>
     4f6:	00 91 3f 01 	lds	r16, 0x013F	; 0x80013f <DS1307+0x11>
     4fa:	21 e0       	ldi	r18, 0x01	; 1
     4fc:	41 e0       	ldi	r20, 0x01	; 1
     4fe:	65 e4       	ldi	r22, 0x45	; 69
     500:	71 e0       	ldi	r23, 0x01	; 1
     502:	84 e4       	ldi	r24, 0x44	; 68
     504:	91 e0       	ldi	r25, 0x01	; 1
     506:	57 d4       	rcall	.+2222   	; 0xdb6 <I2C_Send_STr>
     508:	40 c1       	rjmp	.+640    	; 0x78a <__stack+0x28b>
     50a:	99 23       	and	r25, r25
     50c:	09 f4       	brne	.+2      	; 0x510 <__stack+0x11>
     50e:	79 c1       	rjmp	.+754    	; 0x802 <__stack+0x303>
     510:	10 92 3e 01 	sts	0x013E, r1	; 0x80013e <DS1307+0x10>
     514:	80 91 45 01 	lds	r24, 0x0145	; 0x800145 <DS1307+0x17>
     518:	98 2f       	mov	r25, r24
     51a:	99 1f       	adc	r25, r25
     51c:	99 27       	eor	r25, r25
     51e:	99 1f       	adc	r25, r25
     520:	90 93 39 01 	sts	0x0139, r25	; 0x800139 <DS1307+0xb>
     524:	91 e0       	ldi	r25, 0x01	; 1
     526:	84 ff       	sbrs	r24, 4
     528:	90 e0       	ldi	r25, 0x00	; 0
     52a:	90 93 38 01 	sts	0x0138, r25	; 0x800138 <DS1307+0xa>
     52e:	91 e0       	ldi	r25, 0x01	; 1
     530:	81 ff       	sbrs	r24, 1
     532:	90 e0       	ldi	r25, 0x00	; 0
     534:	90 93 37 01 	sts	0x0137, r25	; 0x800137 <DS1307+0x9>
     538:	91 e0       	ldi	r25, 0x01	; 1
     53a:	80 ff       	sbrs	r24, 0
     53c:	90 e0       	ldi	r25, 0x00	; 0
     53e:	90 93 36 01 	sts	0x0136, r25	; 0x800136 <DS1307+0x8>
     542:	80 91 3a 01 	lds	r24, 0x013A	; 0x80013a <DS1307+0xc>
     546:	81 11       	cpse	r24, r1
     548:	5a c0       	rjmp	.+180    	; 0x5fe <__stack+0xff>
     54a:	84 e0       	ldi	r24, 0x04	; 4
     54c:	80 93 3b 01 	sts	0x013B, r24	; 0x80013b <DS1307+0xd>
     550:	80 93 41 01 	sts	0x0141, r24	; 0x800141 <DS1307+0x13>
     554:	56 c1       	rjmp	.+684    	; 0x802 <__stack+0x303>
     556:	80 91 3f 01 	lds	r24, 0x013F	; 0x80013f <DS1307+0x11>
     55a:	05 d4       	rcall	.+2058   	; 0xd66 <I2C_Ready>
     55c:	90 91 3e 01 	lds	r25, 0x013E	; 0x80013e <DS1307+0x10>
     560:	88 23       	and	r24, r24
     562:	09 f4       	brne	.+2      	; 0x566 <__stack+0x67>
     564:	47 c0       	rjmp	.+142    	; 0x5f4 <__stack+0xf5>
     566:	91 11       	cpse	r25, r1
     568:	45 c0       	rjmp	.+138    	; 0x5f4 <__stack+0xf5>
     56a:	88 e0       	ldi	r24, 0x08	; 8
     56c:	e4 e4       	ldi	r30, 0x44	; 68
     56e:	f1 e0       	ldi	r31, 0x01	; 1
     570:	df 01       	movw	r26, r30
     572:	1d 92       	st	X+, r1
     574:	8a 95       	dec	r24
     576:	e9 f7       	brne	.-6      	; 0x572 <__stack+0x73>
     578:	80 91 2e 01 	lds	r24, 0x012E	; 0x80012e <DS1307>
     57c:	6d de       	rcall	.-806    	; 0x258 <DecimalToBCD>
     57e:	20 91 34 01 	lds	r18, 0x0134	; 0x800134 <DS1307+0x6>
     582:	b0 e8       	ldi	r27, 0x80	; 128
     584:	2b 9f       	mul	r18, r27
     586:	90 01       	movw	r18, r0
     588:	11 24       	eor	r1, r1
     58a:	82 2b       	or	r24, r18
     58c:	80 93 45 01 	sts	0x0145, r24	; 0x800145 <DS1307+0x17>
     590:	80 91 2f 01 	lds	r24, 0x012F	; 0x80012f <DS1307+0x1>
     594:	61 de       	rcall	.-830    	; 0x258 <DecimalToBCD>
     596:	8f 77       	andi	r24, 0x7F	; 127
     598:	80 93 46 01 	sts	0x0146, r24	; 0x800146 <DS1307+0x18>
     59c:	80 91 35 01 	lds	r24, 0x0135	; 0x800135 <DS1307+0x7>
     5a0:	88 23       	and	r24, r24
     5a2:	89 f0       	breq	.+34     	; 0x5c6 <__stack+0xc7>
     5a4:	80 91 30 01 	lds	r24, 0x0130	; 0x800130 <DS1307+0x2>
     5a8:	57 de       	rcall	.-850    	; 0x258 <DecimalToBCD>
     5aa:	20 91 35 01 	lds	r18, 0x0135	; 0x800135 <DS1307+0x7>
     5ae:	30 e4       	ldi	r19, 0x40	; 64
     5b0:	23 9f       	mul	r18, r19
     5b2:	a0 01       	movw	r20, r0
     5b4:	11 24       	eor	r1, r1
     5b6:	90 91 3d 01 	lds	r25, 0x013D	; 0x80013d <DS1307+0xf>
     5ba:	60 e2       	ldi	r22, 0x20	; 32
     5bc:	96 9f       	mul	r25, r22
     5be:	90 01       	movw	r18, r0
     5c0:	11 24       	eor	r1, r1
     5c2:	24 2b       	or	r18, r20
     5c4:	09 c0       	rjmp	.+18     	; 0x5d8 <__stack+0xd9>
     5c6:	80 91 30 01 	lds	r24, 0x0130	; 0x800130 <DS1307+0x2>
     5ca:	46 de       	rcall	.-884    	; 0x258 <DecimalToBCD>
     5cc:	20 91 35 01 	lds	r18, 0x0135	; 0x800135 <DS1307+0x7>
     5d0:	90 e4       	ldi	r25, 0x40	; 64
     5d2:	29 9f       	mul	r18, r25
     5d4:	90 01       	movw	r18, r0
     5d6:	11 24       	eor	r1, r1
     5d8:	82 2b       	or	r24, r18
     5da:	80 93 47 01 	sts	0x0147, r24	; 0x800147 <DS1307+0x19>
     5de:	40 91 3f 01 	lds	r20, 0x013F	; 0x80013f <DS1307+0x11>
     5e2:	64 e0       	ldi	r22, 0x04	; 4
     5e4:	cf c0       	rjmp	.+414    	; 0x784 <__stack+0x285>
     5e6:	80 91 3f 01 	lds	r24, 0x013F	; 0x80013f <DS1307+0x11>
     5ea:	bd d3       	rcall	.+1914   	; 0xd66 <I2C_Ready>
     5ec:	90 91 3e 01 	lds	r25, 0x013E	; 0x80013e <DS1307+0x10>
     5f0:	81 11       	cpse	r24, r1
     5f2:	0a c0       	rjmp	.+20     	; 0x608 <__stack+0x109>
     5f4:	99 23       	and	r25, r25
     5f6:	09 f4       	brne	.+2      	; 0x5fa <__stack+0xfb>
     5f8:	04 c1       	rjmp	.+520    	; 0x802 <__stack+0x303>
     5fa:	10 92 3e 01 	sts	0x013E, r1	; 0x80013e <DS1307+0x10>
     5fe:	10 92 3b 01 	sts	0x013B, r1	; 0x80013b <DS1307+0xd>
     602:	10 92 41 01 	sts	0x0141, r1	; 0x800141 <DS1307+0x13>
     606:	fd c0       	rjmp	.+506    	; 0x802 <__stack+0x303>
     608:	91 11       	cpse	r25, r1
     60a:	f4 cf       	rjmp	.-24     	; 0x5f4 <__stack+0xf5>
     60c:	88 e0       	ldi	r24, 0x08	; 8
     60e:	e4 e4       	ldi	r30, 0x44	; 68
     610:	f1 e0       	ldi	r31, 0x01	; 1
     612:	df 01       	movw	r26, r30
     614:	1d 92       	st	X+, r1
     616:	8a 95       	dec	r24
     618:	e9 f7       	brne	.-6      	; 0x614 <__stack+0x115>
     61a:	84 e0       	ldi	r24, 0x04	; 4
     61c:	80 93 44 01 	sts	0x0144, r24	; 0x800144 <DS1307+0x16>
     620:	80 91 31 01 	lds	r24, 0x0131	; 0x800131 <DS1307+0x3>
     624:	19 de       	rcall	.-974    	; 0x258 <DecimalToBCD>
     626:	8f 73       	andi	r24, 0x3F	; 63
     628:	80 93 45 01 	sts	0x0145, r24	; 0x800145 <DS1307+0x17>
     62c:	80 91 32 01 	lds	r24, 0x0132	; 0x800132 <DS1307+0x4>
     630:	13 de       	rcall	.-986    	; 0x258 <DecimalToBCD>
     632:	8f 71       	andi	r24, 0x1F	; 31
     634:	80 93 46 01 	sts	0x0146, r24	; 0x800146 <DS1307+0x18>
     638:	80 91 33 01 	lds	r24, 0x0133	; 0x800133 <DS1307+0x5>
     63c:	0d de       	rcall	.-998    	; 0x258 <DecimalToBCD>
     63e:	cd cf       	rjmp	.-102    	; 0x5da <__stack+0xdb>
     640:	80 91 3f 01 	lds	r24, 0x013F	; 0x80013f <DS1307+0x11>
     644:	90 d3       	rcall	.+1824   	; 0xd66 <I2C_Ready>
     646:	90 91 3e 01 	lds	r25, 0x013E	; 0x80013e <DS1307+0x10>
     64a:	88 23       	and	r24, r24
     64c:	99 f2       	breq	.-90     	; 0x5f4 <__stack+0xf5>
     64e:	91 11       	cpse	r25, r1
     650:	d1 cf       	rjmp	.-94     	; 0x5f4 <__stack+0xf5>
     652:	88 e0       	ldi	r24, 0x08	; 8
     654:	e4 e4       	ldi	r30, 0x44	; 68
     656:	f1 e0       	ldi	r31, 0x01	; 1
     658:	df 01       	movw	r26, r30
     65a:	1d 92       	st	X+, r1
     65c:	8a 95       	dec	r24
     65e:	e9 f7       	brne	.-6      	; 0x65a <__stack+0x15b>
     660:	80 91 2e 01 	lds	r24, 0x012E	; 0x80012e <DS1307>
     664:	f9 dd       	rcall	.-1038   	; 0x258 <DecimalToBCD>
     666:	20 91 34 01 	lds	r18, 0x0134	; 0x800134 <DS1307+0x6>
     66a:	b0 e8       	ldi	r27, 0x80	; 128
     66c:	2b 9f       	mul	r18, r27
     66e:	90 01       	movw	r18, r0
     670:	11 24       	eor	r1, r1
     672:	82 2b       	or	r24, r18
     674:	80 93 45 01 	sts	0x0145, r24	; 0x800145 <DS1307+0x17>
     678:	80 91 2f 01 	lds	r24, 0x012F	; 0x80012f <DS1307+0x1>
     67c:	ed dd       	rcall	.-1062   	; 0x258 <DecimalToBCD>
     67e:	8f 77       	andi	r24, 0x7F	; 127
     680:	80 93 46 01 	sts	0x0146, r24	; 0x800146 <DS1307+0x18>
     684:	80 91 35 01 	lds	r24, 0x0135	; 0x800135 <DS1307+0x7>
     688:	88 23       	and	r24, r24
     68a:	89 f0       	breq	.+34     	; 0x6ae <__stack+0x1af>
     68c:	80 91 30 01 	lds	r24, 0x0130	; 0x800130 <DS1307+0x2>
     690:	e3 dd       	rcall	.-1082   	; 0x258 <DecimalToBCD>
     692:	20 91 35 01 	lds	r18, 0x0135	; 0x800135 <DS1307+0x7>
     696:	30 e4       	ldi	r19, 0x40	; 64
     698:	23 9f       	mul	r18, r19
     69a:	a0 01       	movw	r20, r0
     69c:	11 24       	eor	r1, r1
     69e:	90 91 3d 01 	lds	r25, 0x013D	; 0x80013d <DS1307+0xf>
     6a2:	60 e2       	ldi	r22, 0x20	; 32
     6a4:	96 9f       	mul	r25, r22
     6a6:	90 01       	movw	r18, r0
     6a8:	11 24       	eor	r1, r1
     6aa:	24 2b       	or	r18, r20
     6ac:	09 c0       	rjmp	.+18     	; 0x6c0 <__stack+0x1c1>
     6ae:	80 91 30 01 	lds	r24, 0x0130	; 0x800130 <DS1307+0x2>
     6b2:	d2 dd       	rcall	.-1116   	; 0x258 <DecimalToBCD>
     6b4:	20 91 35 01 	lds	r18, 0x0135	; 0x800135 <DS1307+0x7>
     6b8:	90 e4       	ldi	r25, 0x40	; 64
     6ba:	29 9f       	mul	r18, r25
     6bc:	90 01       	movw	r18, r0
     6be:	11 24       	eor	r1, r1
     6c0:	82 2b       	or	r24, r18
     6c2:	80 93 47 01 	sts	0x0147, r24	; 0x800147 <DS1307+0x19>
     6c6:	80 91 31 01 	lds	r24, 0x0131	; 0x800131 <DS1307+0x3>
     6ca:	c6 dd       	rcall	.-1140   	; 0x258 <DecimalToBCD>
     6cc:	8f 73       	andi	r24, 0x3F	; 63
     6ce:	80 93 49 01 	sts	0x0149, r24	; 0x800149 <DS1307+0x1b>
     6d2:	80 91 32 01 	lds	r24, 0x0132	; 0x800132 <DS1307+0x4>
     6d6:	c0 dd       	rcall	.-1152   	; 0x258 <DecimalToBCD>
     6d8:	8f 71       	andi	r24, 0x1F	; 31
     6da:	80 93 4a 01 	sts	0x014A, r24	; 0x80014a <DS1307+0x1c>
     6de:	80 91 33 01 	lds	r24, 0x0133	; 0x800133 <DS1307+0x5>
     6e2:	ba dd       	rcall	.-1164   	; 0x258 <DecimalToBCD>
     6e4:	80 93 4b 01 	sts	0x014B, r24	; 0x80014b <DS1307+0x1d>
     6e8:	40 91 3f 01 	lds	r20, 0x013F	; 0x80013f <DS1307+0x11>
     6ec:	68 e0       	ldi	r22, 0x08	; 8
     6ee:	4a c0       	rjmp	.+148    	; 0x784 <__stack+0x285>
     6f0:	80 91 3f 01 	lds	r24, 0x013F	; 0x80013f <DS1307+0x11>
     6f4:	38 d3       	rcall	.+1648   	; 0xd66 <I2C_Ready>
     6f6:	90 91 3e 01 	lds	r25, 0x013E	; 0x80013e <DS1307+0x10>
     6fa:	88 23       	and	r24, r24
     6fc:	09 f4       	brne	.+2      	; 0x700 <__stack+0x201>
     6fe:	7a cf       	rjmp	.-268    	; 0x5f4 <__stack+0xf5>
     700:	91 11       	cpse	r25, r1
     702:	78 cf       	rjmp	.-272    	; 0x5f4 <__stack+0xf5>
     704:	88 e0       	ldi	r24, 0x08	; 8
     706:	e4 e4       	ldi	r30, 0x44	; 68
     708:	f1 e0       	ldi	r31, 0x01	; 1
     70a:	df 01       	movw	r26, r30
     70c:	1d 92       	st	X+, r1
     70e:	8a 95       	dec	r24
     710:	e9 f7       	brne	.-6      	; 0x70c <__stack+0x20d>
     712:	87 e0       	ldi	r24, 0x07	; 7
     714:	80 93 44 01 	sts	0x0144, r24	; 0x800144 <DS1307+0x16>
     718:	80 91 39 01 	lds	r24, 0x0139	; 0x800139 <DS1307+0xb>
     71c:	b0 e8       	ldi	r27, 0x80	; 128
     71e:	8b 9f       	mul	r24, r27
     720:	a0 01       	movw	r20, r0
     722:	11 24       	eor	r1, r1
     724:	20 91 38 01 	lds	r18, 0x0138	; 0x800138 <DS1307+0xa>
     728:	30 e1       	ldi	r19, 0x10	; 16
     72a:	23 9f       	mul	r18, r19
     72c:	c0 01       	movw	r24, r0
     72e:	11 24       	eor	r1, r1
     730:	84 2b       	or	r24, r20
     732:	20 91 36 01 	lds	r18, 0x0136	; 0x800136 <DS1307+0x8>
     736:	98 2f       	mov	r25, r24
     738:	92 2b       	or	r25, r18
     73a:	80 91 37 01 	lds	r24, 0x0137	; 0x800137 <DS1307+0x9>
     73e:	88 0f       	add	r24, r24
     740:	89 2b       	or	r24, r25
     742:	80 93 45 01 	sts	0x0145, r24	; 0x800145 <DS1307+0x17>
     746:	40 91 3f 01 	lds	r20, 0x013F	; 0x80013f <DS1307+0x11>
     74a:	62 e0       	ldi	r22, 0x02	; 2
     74c:	cf 01       	movw	r24, r30
     74e:	1c c0       	rjmp	.+56     	; 0x788 <__stack+0x289>
     750:	80 91 3f 01 	lds	r24, 0x013F	; 0x80013f <DS1307+0x11>
     754:	08 d3       	rcall	.+1552   	; 0xd66 <I2C_Ready>
     756:	90 91 3e 01 	lds	r25, 0x013E	; 0x80013e <DS1307+0x10>
     75a:	88 23       	and	r24, r24
     75c:	09 f4       	brne	.+2      	; 0x760 <__stack+0x261>
     75e:	4a cf       	rjmp	.-364    	; 0x5f4 <__stack+0xf5>
     760:	91 11       	cpse	r25, r1
     762:	48 cf       	rjmp	.-368    	; 0x5f4 <__stack+0xf5>
     764:	88 e0       	ldi	r24, 0x08	; 8
     766:	e4 e4       	ldi	r30, 0x44	; 68
     768:	f1 e0       	ldi	r31, 0x01	; 1
     76a:	df 01       	movw	r26, r30
     76c:	1d 92       	st	X+, r1
     76e:	8a 95       	dec	r24
     770:	e9 f7       	brne	.-6      	; 0x76c <__stack+0x26d>
     772:	80 91 2e 01 	lds	r24, 0x012E	; 0x80012e <DS1307>
     776:	70 dd       	rcall	.-1312   	; 0x258 <DecimalToBCD>
     778:	8f 77       	andi	r24, 0x7F	; 127
     77a:	80 93 45 01 	sts	0x0145, r24	; 0x800145 <DS1307+0x17>
     77e:	40 91 3f 01 	lds	r20, 0x013F	; 0x80013f <DS1307+0x11>
     782:	62 e0       	ldi	r22, 0x02	; 2
     784:	84 e4       	ldi	r24, 0x44	; 68
     786:	91 e0       	ldi	r25, 0x01	; 1
     788:	ff d2       	rcall	.+1534   	; 0xd88 <I2C_Send_ST>
     78a:	80 91 3b 01 	lds	r24, 0x013B	; 0x80013b <DS1307+0xd>
     78e:	80 93 40 01 	sts	0x0140, r24	; 0x800140 <DS1307+0x12>
     792:	83 e6       	ldi	r24, 0x63	; 99
     794:	80 93 3b 01 	sts	0x013B, r24	; 0x80013b <DS1307+0xd>
     798:	34 c0       	rjmp	.+104    	; 0x802 <__stack+0x303>
     79a:	80 91 3f 01 	lds	r24, 0x013F	; 0x80013f <DS1307+0x11>
     79e:	e3 d2       	rcall	.+1478   	; 0xd66 <I2C_Ready>
     7a0:	90 91 3e 01 	lds	r25, 0x013E	; 0x80013e <DS1307+0x10>
     7a4:	88 23       	and	r24, r24
     7a6:	09 f4       	brne	.+2      	; 0x7aa <__stack+0x2ab>
     7a8:	25 cf       	rjmp	.-438    	; 0x5f4 <__stack+0xf5>
     7aa:	91 11       	cpse	r25, r1
     7ac:	23 cf       	rjmp	.-442    	; 0x5f4 <__stack+0xf5>
     7ae:	88 e0       	ldi	r24, 0x08	; 8
     7b0:	e4 e4       	ldi	r30, 0x44	; 68
     7b2:	f1 e0       	ldi	r31, 0x01	; 1
     7b4:	df 01       	movw	r26, r30
     7b6:	1d 92       	st	X+, r1
     7b8:	8a 95       	dec	r24
     7ba:	e9 f7       	brne	.-6      	; 0x7b6 <__stack+0x2b7>
     7bc:	80 91 2e 01 	lds	r24, 0x012E	; 0x80012e <DS1307>
     7c0:	4b dd       	rcall	.-1386   	; 0x258 <DecimalToBCD>
     7c2:	80 68       	ori	r24, 0x80	; 128
     7c4:	da cf       	rjmp	.-76     	; 0x77a <__stack+0x27b>
     7c6:	80 91 3f 01 	lds	r24, 0x013F	; 0x80013f <DS1307+0x11>
     7ca:	bb d2       	rcall	.+1398   	; 0xd42 <I2C_ID_State>
     7cc:	85 36       	cpi	r24, 0x65	; 101
     7ce:	59 f4       	brne	.+22     	; 0x7e6 <__stack+0x2e7>
     7d0:	10 92 3b 01 	sts	0x013B, r1	; 0x80013b <DS1307+0xd>
     7d4:	10 92 41 01 	sts	0x0141, r1	; 0x800141 <DS1307+0x13>
     7d8:	80 91 3f 01 	lds	r24, 0x013F	; 0x80013f <DS1307+0x11>
     7dc:	bb d2       	rcall	.+1398   	; 0xd54 <I2C_ID_Ack_Error>
     7de:	8a e0       	ldi	r24, 0x0A	; 10
     7e0:	80 93 3c 01 	sts	0x013C, r24	; 0x80013c <DS1307+0xe>
     7e4:	0e c0       	rjmp	.+28     	; 0x802 <__stack+0x303>
     7e6:	80 91 3f 01 	lds	r24, 0x013F	; 0x80013f <DS1307+0x11>
     7ea:	bd d2       	rcall	.+1402   	; 0xd66 <I2C_Ready>
     7ec:	88 23       	and	r24, r24
     7ee:	49 f0       	breq	.+18     	; 0x802 <__stack+0x303>
     7f0:	80 91 40 01 	lds	r24, 0x0140	; 0x800140 <DS1307+0x12>
     7f4:	80 93 3b 01 	sts	0x013B, r24	; 0x80013b <DS1307+0xd>
     7f8:	80 91 3e 01 	lds	r24, 0x013E	; 0x80013e <DS1307+0x10>
     7fc:	8f 5f       	subi	r24, 0xFF	; 255
     7fe:	80 93 3e 01 	sts	0x013E, r24	; 0x80013e <DS1307+0x10>
     802:	80 91 3c 01 	lds	r24, 0x013C	; 0x80013c <DS1307+0xe>
     806:	88 23       	and	r24, r24
     808:	21 f0       	breq	.+8      	; 0x812 <__stack+0x313>
     80a:	5a da       	rcall	.-2892   	; 0xfffffcc0 <__eeprom_end+0xff7efcc0>
     80c:	91 e0       	ldi	r25, 0x01	; 1
     80e:	81 11       	cpse	r24, r1
     810:	01 c0       	rjmp	.+2      	; 0x814 <__stack+0x315>
     812:	90 e0       	ldi	r25, 0x00	; 0
     814:	80 91 3c 01 	lds	r24, 0x013C	; 0x80013c <DS1307+0xe>
     818:	89 1b       	sub	r24, r25
     81a:	80 93 3c 01 	sts	0x013C, r24	; 0x80013c <DS1307+0xe>
     81e:	0f 91       	pop	r16
     820:	08 95       	ret

00000822 <DS1307_Init>:
     822:	88 e0       	ldi	r24, 0x08	; 8
     824:	e4 e4       	ldi	r30, 0x44	; 68
     826:	f1 e0       	ldi	r31, 0x01	; 1
     828:	df 01       	movw	r26, r30
     82a:	1d 92       	st	X+, r1
     82c:	8a 95       	dec	r24
     82e:	e9 f7       	brne	.-6      	; 0x82a <DS1307_Init+0x8>
     830:	10 92 3e 01 	sts	0x013E, r1	; 0x80013e <DS1307+0x10>
     834:	10 92 3a 01 	sts	0x013A, r1	; 0x80013a <DS1307+0xc>
     838:	80 91 3f 01 	lds	r24, 0x013F	; 0x80013f <DS1307+0x11>
     83c:	81 11       	cpse	r24, r1
     83e:	05 d3       	rcall	.+1546   	; 0xe4a <I2C_Free_Ident>
     840:	10 92 3f 01 	sts	0x013F, r1	; 0x80013f <DS1307+0x11>
     844:	10 92 3c 01 	sts	0x013C, r1	; 0x80013c <DS1307+0xe>
     848:	81 e0       	ldi	r24, 0x01	; 1
     84a:	80 93 41 01 	sts	0x0141, r24	; 0x800141 <DS1307+0x13>
     84e:	08 95       	ret

00000850 <DS1307_Ready>:
     850:	80 91 3b 01 	lds	r24, 0x013B	; 0x80013b <DS1307+0xd>
     854:	81 11       	cpse	r24, r1
     856:	07 c0       	rjmp	.+14     	; 0x866 <DS1307_Ready+0x16>
     858:	80 91 3a 01 	lds	r24, 0x013A	; 0x80013a <DS1307+0xc>
     85c:	81 30       	cpi	r24, 0x01	; 1
     85e:	19 f4       	brne	.+6      	; 0x866 <DS1307_Ready+0x16>
     860:	90 91 41 01 	lds	r25, 0x0141	; 0x800141 <DS1307+0x13>
     864:	91 11       	cpse	r25, r1
     866:	80 e0       	ldi	r24, 0x00	; 0
     868:	08 95       	ret

0000086a <DS1307_Get_DateTime>:
     86a:	20 91 41 01 	lds	r18, 0x0141	; 0x800141 <DS1307+0x13>
     86e:	21 11       	cpse	r18, r1
     870:	07 c0       	rjmp	.+14     	; 0x880 <DS1307_Get_DateTime+0x16>
     872:	90 93 43 01 	sts	0x0143, r25	; 0x800143 <DS1307+0x15>
     876:	80 93 42 01 	sts	0x0142, r24	; 0x800142 <DS1307+0x14>
     87a:	84 e0       	ldi	r24, 0x04	; 4
     87c:	80 93 41 01 	sts	0x0141, r24	; 0x800141 <DS1307+0x13>
     880:	08 95       	ret

00000882 <DS1307_Get_TWLF>:
     882:	80 91 35 01 	lds	r24, 0x0135	; 0x800135 <DS1307+0x7>
     886:	08 95       	ret

00000888 <DS1307_Get_PM>:
     888:	80 91 3d 01 	lds	r24, 0x013D	; 0x80013d <DS1307+0xf>
     88c:	08 95       	ret

0000088e <DS1307_Set_DateTime>:
     88e:	fc 01       	movw	r30, r24
     890:	80 91 41 01 	lds	r24, 0x0141	; 0x800141 <DS1307+0x13>
     894:	81 11       	cpse	r24, r1
     896:	0e c0       	rjmp	.+28     	; 0x8b4 <DS1307_Set_DateTime+0x26>
     898:	f0 93 43 01 	sts	0x0143, r31	; 0x800143 <DS1307+0x15>
     89c:	e0 93 42 01 	sts	0x0142, r30	; 0x800142 <DS1307+0x14>
     8a0:	96 e0       	ldi	r25, 0x06	; 6
     8a2:	ae e2       	ldi	r26, 0x2E	; 46
     8a4:	b1 e0       	ldi	r27, 0x01	; 1
     8a6:	01 90       	ld	r0, Z+
     8a8:	0d 92       	st	X+, r0
     8aa:	9a 95       	dec	r25
     8ac:	e1 f7       	brne	.-8      	; 0x8a6 <DS1307_Set_DateTime+0x18>
     8ae:	8d e0       	ldi	r24, 0x0D	; 13
     8b0:	80 93 41 01 	sts	0x0141, r24	; 0x800141 <DS1307+0x13>
     8b4:	08 95       	ret

000008b6 <DS1307_Set_TWLF>:
     8b6:	90 91 41 01 	lds	r25, 0x0141	; 0x800141 <DS1307+0x13>
     8ba:	91 11       	cpse	r25, r1
     8bc:	21 c0       	rjmp	.+66     	; 0x900 <DS1307_Set_TWLF+0x4a>
     8be:	91 e0       	ldi	r25, 0x01	; 1
     8c0:	81 11       	cpse	r24, r1
     8c2:	01 c0       	rjmp	.+2      	; 0x8c6 <DS1307_Set_TWLF+0x10>
     8c4:	90 e0       	ldi	r25, 0x00	; 0
     8c6:	90 93 35 01 	sts	0x0135, r25	; 0x800135 <DS1307+0x7>
     8ca:	90 91 30 01 	lds	r25, 0x0130	; 0x800130 <DS1307+0x2>
     8ce:	9d 30       	cpi	r25, 0x0D	; 13
     8d0:	48 f0       	brcs	.+18     	; 0x8e4 <DS1307_Set_TWLF+0x2e>
     8d2:	88 23       	and	r24, r24
     8d4:	39 f0       	breq	.+14     	; 0x8e4 <DS1307_Set_TWLF+0x2e>
     8d6:	9c 50       	subi	r25, 0x0C	; 12
     8d8:	90 93 30 01 	sts	0x0130, r25	; 0x800130 <DS1307+0x2>
     8dc:	81 e0       	ldi	r24, 0x01	; 1
     8de:	80 93 3d 01 	sts	0x013D, r24	; 0x80013d <DS1307+0xf>
     8e2:	0b c0       	rjmp	.+22     	; 0x8fa <DS1307_Set_TWLF+0x44>
     8e4:	20 91 3d 01 	lds	r18, 0x013D	; 0x80013d <DS1307+0xf>
     8e8:	22 23       	and	r18, r18
     8ea:	39 f0       	breq	.+14     	; 0x8fa <DS1307_Set_TWLF+0x44>
     8ec:	81 11       	cpse	r24, r1
     8ee:	05 c0       	rjmp	.+10     	; 0x8fa <DS1307_Set_TWLF+0x44>
     8f0:	94 5f       	subi	r25, 0xF4	; 244
     8f2:	90 93 30 01 	sts	0x0130, r25	; 0x800130 <DS1307+0x2>
     8f6:	10 92 3d 01 	sts	0x013D, r1	; 0x80013d <DS1307+0xf>
     8fa:	8b e0       	ldi	r24, 0x0B	; 11
     8fc:	80 93 41 01 	sts	0x0141, r24	; 0x800141 <DS1307+0x13>
     900:	08 95       	ret

00000902 <DS1307_Set_PM>:
     902:	90 91 35 01 	lds	r25, 0x0135	; 0x800135 <DS1307+0x7>
     906:	91 11       	cpse	r25, r1
     908:	80 93 3d 01 	sts	0x013D, r24	; 0x80013d <DS1307+0xf>
     90c:	08 95       	ret

0000090e <EEPROM_Loop>:
     90e:	80 91 4c 01 	lds	r24, 0x014C	; 0x80014c <EEPROM>
     912:	82 30       	cpi	r24, 0x02	; 2
     914:	09 f4       	brne	.+2      	; 0x918 <EEPROM_Loop+0xa>
     916:	49 c0       	rjmp	.+146    	; 0x9aa <EEPROM_Loop+0x9c>
     918:	28 f4       	brcc	.+10     	; 0x924 <EEPROM_Loop+0x16>
     91a:	88 23       	and	r24, r24
     91c:	51 f0       	breq	.+20     	; 0x932 <EEPROM_Loop+0x24>
     91e:	81 30       	cpi	r24, 0x01	; 1
     920:	c9 f0       	breq	.+50     	; 0x954 <EEPROM_Loop+0x46>
     922:	72 c0       	rjmp	.+228    	; 0xa08 <EEPROM_Loop+0xfa>
     924:	83 30       	cpi	r24, 0x03	; 3
     926:	09 f4       	brne	.+2      	; 0x92a <EEPROM_Loop+0x1c>
     928:	43 c0       	rjmp	.+134    	; 0x9b0 <EEPROM_Loop+0xa2>
     92a:	84 30       	cpi	r24, 0x04	; 4
     92c:	09 f4       	brne	.+2      	; 0x930 <EEPROM_Loop+0x22>
     92e:	69 c0       	rjmp	.+210    	; 0xa02 <EEPROM_Loop+0xf4>
     930:	6b c0       	rjmp	.+214    	; 0xa08 <EEPROM_Loop+0xfa>
     932:	f9 99       	sbic	0x1f, 1	; 31
     934:	6b c0       	rjmp	.+214    	; 0xa0c <EEPROM_Loop+0xfe>
     936:	80 91 4f 01 	lds	r24, 0x014F	; 0x80014f <EEPROM+0x3>
     93a:	90 91 50 01 	lds	r25, 0x0150	; 0x800150 <EEPROM+0x4>
     93e:	89 2b       	or	r24, r25
     940:	09 f4       	brne	.+2      	; 0x944 <EEPROM_Loop+0x36>
     942:	64 c0       	rjmp	.+200    	; 0xa0c <EEPROM_Loop+0xfe>
     944:	80 91 51 01 	lds	r24, 0x0151	; 0x800151 <EEPROM+0x5>
     948:	88 23       	and	r24, r24
     94a:	11 f0       	breq	.+4      	; 0x950 <EEPROM_Loop+0x42>
     94c:	81 e0       	ldi	r24, 0x01	; 1
     94e:	56 c0       	rjmp	.+172    	; 0x9fc <EEPROM_Loop+0xee>
     950:	83 e0       	ldi	r24, 0x03	; 3
     952:	54 c0       	rjmp	.+168    	; 0x9fc <EEPROM_Loop+0xee>
     954:	80 91 4f 01 	lds	r24, 0x014F	; 0x80014f <EEPROM+0x3>
     958:	90 91 50 01 	lds	r25, 0x0150	; 0x800150 <EEPROM+0x4>
     95c:	00 97       	sbiw	r24, 0x00	; 0
     95e:	09 f4       	brne	.+2      	; 0x962 <EEPROM_Loop+0x54>
     960:	53 c0       	rjmp	.+166    	; 0xa08 <EEPROM_Loop+0xfa>
     962:	01 97       	sbiw	r24, 0x01	; 1
     964:	90 93 50 01 	sts	0x0150, r25	; 0x800150 <EEPROM+0x4>
     968:	80 93 4f 01 	sts	0x014F, r24	; 0x80014f <EEPROM+0x3>
     96c:	f8 94       	cli
     96e:	80 91 4d 01 	lds	r24, 0x014D	; 0x80014d <EEPROM+0x1>
     972:	90 91 4e 01 	lds	r25, 0x014E	; 0x80014e <EEPROM+0x2>
     976:	9c 01       	movw	r18, r24
     978:	2f 5f       	subi	r18, 0xFF	; 255
     97a:	3f 4f       	sbci	r19, 0xFF	; 255
     97c:	30 93 4e 01 	sts	0x014E, r19	; 0x80014e <EEPROM+0x2>
     980:	20 93 4d 01 	sts	0x014D, r18	; 0x80014d <EEPROM+0x1>
     984:	92 bd       	out	0x22, r25	; 34
     986:	81 bd       	out	0x21, r24	; 33
     988:	e0 91 52 01 	lds	r30, 0x0152	; 0x800152 <EEPROM+0x6>
     98c:	f0 91 53 01 	lds	r31, 0x0153	; 0x800153 <EEPROM+0x7>
     990:	cf 01       	movw	r24, r30
     992:	01 96       	adiw	r24, 0x01	; 1
     994:	90 93 53 01 	sts	0x0153, r25	; 0x800153 <EEPROM+0x7>
     998:	80 93 52 01 	sts	0x0152, r24	; 0x800152 <EEPROM+0x6>
     99c:	80 81       	ld	r24, Z
     99e:	80 bd       	out	0x20, r24	; 32
     9a0:	fa 9a       	sbi	0x1f, 2	; 31
     9a2:	f9 9a       	sbi	0x1f, 1	; 31
     9a4:	78 94       	sei
     9a6:	82 e0       	ldi	r24, 0x02	; 2
     9a8:	29 c0       	rjmp	.+82     	; 0x9fc <EEPROM_Loop+0xee>
     9aa:	f9 9b       	sbis	0x1f, 1	; 31
     9ac:	cf cf       	rjmp	.-98     	; 0x94c <EEPROM_Loop+0x3e>
     9ae:	08 95       	ret
     9b0:	80 91 4f 01 	lds	r24, 0x014F	; 0x80014f <EEPROM+0x3>
     9b4:	90 91 50 01 	lds	r25, 0x0150	; 0x800150 <EEPROM+0x4>
     9b8:	00 97       	sbiw	r24, 0x00	; 0
     9ba:	31 f1       	breq	.+76     	; 0xa08 <EEPROM_Loop+0xfa>
     9bc:	01 97       	sbiw	r24, 0x01	; 1
     9be:	90 93 50 01 	sts	0x0150, r25	; 0x800150 <EEPROM+0x4>
     9c2:	80 93 4f 01 	sts	0x014F, r24	; 0x80014f <EEPROM+0x3>
     9c6:	80 91 4d 01 	lds	r24, 0x014D	; 0x80014d <EEPROM+0x1>
     9ca:	90 91 4e 01 	lds	r25, 0x014E	; 0x80014e <EEPROM+0x2>
     9ce:	9c 01       	movw	r18, r24
     9d0:	2f 5f       	subi	r18, 0xFF	; 255
     9d2:	3f 4f       	sbci	r19, 0xFF	; 255
     9d4:	30 93 4e 01 	sts	0x014E, r19	; 0x80014e <EEPROM+0x2>
     9d8:	20 93 4d 01 	sts	0x014D, r18	; 0x80014d <EEPROM+0x1>
     9dc:	92 bd       	out	0x22, r25	; 34
     9de:	81 bd       	out	0x21, r24	; 33
     9e0:	f8 9a       	sbi	0x1f, 0	; 31
     9e2:	e0 91 52 01 	lds	r30, 0x0152	; 0x800152 <EEPROM+0x6>
     9e6:	f0 91 53 01 	lds	r31, 0x0153	; 0x800153 <EEPROM+0x7>
     9ea:	cf 01       	movw	r24, r30
     9ec:	01 96       	adiw	r24, 0x01	; 1
     9ee:	90 93 53 01 	sts	0x0153, r25	; 0x800153 <EEPROM+0x7>
     9f2:	80 93 52 01 	sts	0x0152, r24	; 0x800152 <EEPROM+0x6>
     9f6:	80 b5       	in	r24, 0x20	; 32
     9f8:	80 83       	st	Z, r24
     9fa:	84 e0       	ldi	r24, 0x04	; 4
     9fc:	80 93 4c 01 	sts	0x014C, r24	; 0x80014c <EEPROM>
     a00:	08 95       	ret
     a02:	f9 9b       	sbis	0x1f, 1	; 31
     a04:	a5 cf       	rjmp	.-182    	; 0x950 <EEPROM_Loop+0x42>
     a06:	08 95       	ret
     a08:	10 92 4c 01 	sts	0x014C, r1	; 0x80014c <EEPROM>
     a0c:	08 95       	ret

00000a0e <EEPROM_Status>:
     a0e:	80 91 4f 01 	lds	r24, 0x014F	; 0x80014f <EEPROM+0x3>
     a12:	90 91 50 01 	lds	r25, 0x0150	; 0x800150 <EEPROM+0x4>
     a16:	89 2b       	or	r24, r25
     a18:	19 f4       	brne	.+6      	; 0xa20 <EEPROM_Status+0x12>
     a1a:	80 91 4c 01 	lds	r24, 0x014C	; 0x80014c <EEPROM>
     a1e:	08 95       	ret
     a20:	83 e6       	ldi	r24, 0x63	; 99
     a22:	08 95       	ret

00000a24 <EEPROM_Write>:
     a24:	ec e4       	ldi	r30, 0x4C	; 76
     a26:	f1 e0       	ldi	r31, 0x01	; 1
     a28:	92 83       	std	Z+2, r25	; 0x02
     a2a:	81 83       	std	Z+1, r24	; 0x01
     a2c:	74 83       	std	Z+4, r23	; 0x04
     a2e:	63 83       	std	Z+3, r22	; 0x03
     a30:	57 83       	std	Z+7, r21	; 0x07
     a32:	46 83       	std	Z+6, r20	; 0x06
     a34:	85 81       	ldd	r24, Z+5	; 0x05
     a36:	8f 5f       	subi	r24, 0xFF	; 255
     a38:	85 83       	std	Z+5, r24	; 0x05
     a3a:	08 95       	ret

00000a3c <EEPROM_Read>:
     a3c:	ec e4       	ldi	r30, 0x4C	; 76
     a3e:	f1 e0       	ldi	r31, 0x01	; 1
     a40:	92 83       	std	Z+2, r25	; 0x02
     a42:	81 83       	std	Z+1, r24	; 0x01
     a44:	74 83       	std	Z+4, r23	; 0x04
     a46:	63 83       	std	Z+3, r22	; 0x03
     a48:	57 83       	std	Z+7, r21	; 0x07
     a4a:	46 83       	std	Z+6, r20	; 0x06
     a4c:	15 82       	std	Z+5, r1	; 0x05
     a4e:	08 95       	ret

00000a50 <I2C_Loop>:
     a50:	80 91 56 01 	lds	r24, 0x0156	; 0x800156 <TWI+0x2>
     a54:	84 36       	cpi	r24, 0x64	; 100
     a56:	10 f4       	brcc	.+4      	; 0xa5c <I2C_Loop+0xc>
     a58:	80 93 57 01 	sts	0x0157, r24	; 0x800157 <TWI+0x3>
     a5c:	85 30       	cpi	r24, 0x05	; 5
     a5e:	09 f4       	brne	.+2      	; 0xa62 <I2C_Loop+0x12>
     a60:	90 c0       	rjmp	.+288    	; 0xb82 <I2C_Loop+0x132>
     a62:	28 f5       	brcc	.+74     	; 0xaae <I2C_Loop+0x5e>
     a64:	82 30       	cpi	r24, 0x02	; 2
     a66:	09 f4       	brne	.+2      	; 0xa6a <I2C_Loop+0x1a>
     a68:	56 c0       	rjmp	.+172    	; 0xb16 <I2C_Loop+0xc6>
     a6a:	d8 f4       	brcc	.+54     	; 0xaa2 <I2C_Loop+0x52>
     a6c:	88 23       	and	r24, r24
     a6e:	91 f1       	breq	.+100    	; 0xad4 <I2C_Loop+0x84>
     a70:	81 30       	cpi	r24, 0x01	; 1
     a72:	09 f0       	breq	.+2      	; 0xa76 <I2C_Loop+0x26>
     a74:	58 c1       	rjmp	.+688    	; 0xd26 <I2C_Loop+0x2d6>
     a76:	10 92 b9 00 	sts	0x00B9, r1	; 0x8000b9 <__EEPROM_REGION_LENGTH__+0x7f00b9>
     a7a:	90 e2       	ldi	r25, 0x20	; 32
     a7c:	90 93 b8 00 	sts	0x00B8, r25	; 0x8000b8 <__EEPROM_REGION_LENGTH__+0x7f00b8>
     a80:	94 e0       	ldi	r25, 0x04	; 4
     a82:	90 93 bc 00 	sts	0x00BC, r25	; 0x8000bc <__EEPROM_REGION_LENGTH__+0x7f00bc>
     a86:	98 b1       	in	r25, 0x08	; 8
     a88:	90 63       	ori	r25, 0x30	; 48
     a8a:	98 b9       	out	0x08, r25	; 8
     a8c:	10 92 7c 01 	sts	0x017C, r1	; 0x80017c <TWI+0x28>
     a90:	10 92 8b 01 	sts	0x018B, r1	; 0x80018b <TWI+0x37>
     a94:	10 92 9a 01 	sts	0x019A, r1	; 0x80019a <TWI+0x46>
     a98:	10 92 a9 01 	sts	0x01A9, r1	; 0x8001a9 <TWI+0x55>
     a9c:	80 93 55 01 	sts	0x0155, r24	; 0x800155 <TWI+0x1>
     aa0:	42 c1       	rjmp	.+644    	; 0xd26 <I2C_Loop+0x2d6>
     aa2:	83 30       	cpi	r24, 0x03	; 3
     aa4:	e9 f1       	breq	.+122    	; 0xb20 <I2C_Loop+0xd0>
     aa6:	84 30       	cpi	r24, 0x04	; 4
     aa8:	09 f4       	brne	.+2      	; 0xaac <I2C_Loop+0x5c>
     aaa:	4f c0       	rjmp	.+158    	; 0xb4a <I2C_Loop+0xfa>
     aac:	3c c1       	rjmp	.+632    	; 0xd26 <I2C_Loop+0x2d6>
     aae:	8c 30       	cpi	r24, 0x0C	; 12
     ab0:	09 f4       	brne	.+2      	; 0xab4 <I2C_Loop+0x64>
     ab2:	e5 c0       	rjmp	.+458    	; 0xc7e <I2C_Loop+0x22e>
     ab4:	38 f4       	brcc	.+14     	; 0xac4 <I2C_Loop+0x74>
     ab6:	8a 30       	cpi	r24, 0x0A	; 10
     ab8:	09 f4       	brne	.+2      	; 0xabc <I2C_Loop+0x6c>
     aba:	98 c0       	rjmp	.+304    	; 0xbec <I2C_Loop+0x19c>
     abc:	8b 30       	cpi	r24, 0x0B	; 11
     abe:	09 f4       	brne	.+2      	; 0xac2 <I2C_Loop+0x72>
     ac0:	b3 c0       	rjmp	.+358    	; 0xc28 <I2C_Loop+0x1d8>
     ac2:	31 c1       	rjmp	.+610    	; 0xd26 <I2C_Loop+0x2d6>
     ac4:	8d 30       	cpi	r24, 0x0D	; 13
     ac6:	09 f4       	brne	.+2      	; 0xaca <I2C_Loop+0x7a>
     ac8:	f3 c0       	rjmp	.+486    	; 0xcb0 <I2C_Loop+0x260>
     aca:	84 36       	cpi	r24, 0x64	; 100
     acc:	09 f0       	breq	.+2      	; 0xad0 <I2C_Loop+0x80>
     ace:	2b c1       	rjmp	.+598    	; 0xd26 <I2C_Loop+0x2d6>
     ad0:	00 00       	nop
     ad2:	08 95       	ret
     ad4:	80 91 54 01 	lds	r24, 0x0154	; 0x800154 <TWI>
     ad8:	88 23       	and	r24, r24
     ada:	09 f4       	brne	.+2      	; 0xade <I2C_Loop+0x8e>
     adc:	26 c1       	rjmp	.+588    	; 0xd2a <I2C_Loop+0x2da>
     ade:	80 91 55 01 	lds	r24, 0x0155	; 0x800155 <TWI+0x1>
     ae2:	88 23       	and	r24, r24
     ae4:	09 f4       	brne	.+2      	; 0xae8 <I2C_Loop+0x98>
     ae6:	21 c1       	rjmp	.+578    	; 0xd2a <I2C_Loop+0x2da>
     ae8:	e4 e5       	ldi	r30, 0x54	; 84
     aea:	f1 e0       	ldi	r31, 0x01	; 1
     aec:	81 e0       	ldi	r24, 0x01	; 1
     aee:	90 a1       	ldd	r25, Z+32	; 0x20
     af0:	91 11       	cpse	r25, r1
     af2:	03 c0       	rjmp	.+6      	; 0xafa <I2C_Loop+0xaa>
     af4:	91 a1       	ldd	r25, Z+33	; 0x21
     af6:	99 23       	and	r25, r25
     af8:	49 f0       	breq	.+18     	; 0xb0c <I2C_Loop+0xbc>
     afa:	90 a5       	ldd	r25, Z+40	; 0x28
     afc:	99 23       	and	r25, r25
     afe:	31 f0       	breq	.+12     	; 0xb0c <I2C_Loop+0xbc>
     b00:	92 e0       	ldi	r25, 0x02	; 2
     b02:	90 93 56 01 	sts	0x0156, r25	; 0x800156 <TWI+0x2>
     b06:	80 93 5b 01 	sts	0x015B, r24	; 0x80015b <TWI+0x7>
     b0a:	08 95       	ret
     b0c:	8f 5f       	subi	r24, 0xFF	; 255
     b0e:	3f 96       	adiw	r30, 0x0f	; 15
     b10:	85 30       	cpi	r24, 0x05	; 5
     b12:	69 f7       	brne	.-38     	; 0xaee <I2C_Loop+0x9e>
     b14:	08 95       	ret
     b16:	83 e0       	ldi	r24, 0x03	; 3
     b18:	80 93 56 01 	sts	0x0156, r24	; 0x800156 <TWI+0x2>
     b1c:	84 ea       	ldi	r24, 0xA4	; 164
     b1e:	28 c0       	rjmp	.+80     	; 0xb70 <I2C_Loop+0x120>
     b20:	80 91 bc 00 	lds	r24, 0x00BC	; 0x8000bc <__EEPROM_REGION_LENGTH__+0x7f00bc>
     b24:	87 ff       	sbrs	r24, 7
     b26:	01 c1       	rjmp	.+514    	; 0xd2a <I2C_Loop+0x2da>
     b28:	80 91 b9 00 	lds	r24, 0x00B9	; 0x8000b9 <__EEPROM_REGION_LENGTH__+0x7f00b9>
     b2c:	88 7f       	andi	r24, 0xF8	; 248
     b2e:	80 93 5c 01 	sts	0x015C, r24	; 0x80015c <TWI+0x8>
     b32:	88 30       	cpi	r24, 0x08	; 8
     b34:	11 f0       	breq	.+4      	; 0xb3a <I2C_Loop+0xea>
     b36:	80 31       	cpi	r24, 0x10	; 16
     b38:	11 f4       	brne	.+4      	; 0xb3e <I2C_Loop+0xee>
     b3a:	84 e0       	ldi	r24, 0x04	; 4
     b3c:	e4 c0       	rjmp	.+456    	; 0xd06 <I2C_Loop+0x2b6>
     b3e:	94 e6       	ldi	r25, 0x64	; 100
     b40:	90 93 56 01 	sts	0x0156, r25	; 0x800156 <TWI+0x2>
     b44:	80 93 57 01 	sts	0x0157, r24	; 0x800157 <TWI+0x3>
     b48:	08 95       	ret
     b4a:	e0 91 5b 01 	lds	r30, 0x015B	; 0x80015b <TWI+0x7>
     b4e:	8f e0       	ldi	r24, 0x0F	; 15
     b50:	e8 9f       	mul	r30, r24
     b52:	f0 01       	movw	r30, r0
     b54:	11 24       	eor	r1, r1
     b56:	ec 5a       	subi	r30, 0xAC	; 172
     b58:	fe 4f       	sbci	r31, 0xFE	; 254
     b5a:	91 89       	ldd	r25, Z+17	; 0x11
     b5c:	85 89       	ldd	r24, Z+21	; 0x15
     b5e:	99 23       	and	r25, r25
     b60:	51 f0       	breq	.+20     	; 0xb76 <I2C_Loop+0x126>
     b62:	95 e0       	ldi	r25, 0x05	; 5
     b64:	90 93 56 01 	sts	0x0156, r25	; 0x800156 <TWI+0x2>
     b68:	88 0f       	add	r24, r24
     b6a:	80 93 bb 00 	sts	0x00BB, r24	; 0x8000bb <__EEPROM_REGION_LENGTH__+0x7f00bb>
     b6e:	84 e8       	ldi	r24, 0x84	; 132
     b70:	80 93 bc 00 	sts	0x00BC, r24	; 0x8000bc <__EEPROM_REGION_LENGTH__+0x7f00bc>
     b74:	08 95       	ret
     b76:	95 e0       	ldi	r25, 0x05	; 5
     b78:	90 93 56 01 	sts	0x0156, r25	; 0x800156 <TWI+0x2>
     b7c:	88 0f       	add	r24, r24
     b7e:	8f 5f       	subi	r24, 0xFF	; 255
     b80:	f4 cf       	rjmp	.-24     	; 0xb6a <I2C_Loop+0x11a>
     b82:	80 91 bc 00 	lds	r24, 0x00BC	; 0x8000bc <__EEPROM_REGION_LENGTH__+0x7f00bc>
     b86:	87 ff       	sbrs	r24, 7
     b88:	d0 c0       	rjmp	.+416    	; 0xd2a <I2C_Loop+0x2da>
     b8a:	80 91 b9 00 	lds	r24, 0x00B9	; 0x8000b9 <__EEPROM_REGION_LENGTH__+0x7f00b9>
     b8e:	88 7f       	andi	r24, 0xF8	; 248
     b90:	80 93 5c 01 	sts	0x015C, r24	; 0x80015c <TWI+0x8>
     b94:	88 31       	cpi	r24, 0x18	; 24
     b96:	11 f0       	breq	.+4      	; 0xb9c <I2C_Loop+0x14c>
     b98:	80 34       	cpi	r24, 0x40	; 64
     b9a:	69 f4       	brne	.+26     	; 0xbb6 <I2C_Loop+0x166>
     b9c:	e0 91 5b 01 	lds	r30, 0x015B	; 0x80015b <TWI+0x7>
     ba0:	9f e0       	ldi	r25, 0x0F	; 15
     ba2:	e9 9f       	mul	r30, r25
     ba4:	f0 01       	movw	r30, r0
     ba6:	11 24       	eor	r1, r1
     ba8:	ec 5a       	subi	r30, 0xAC	; 172
     baa:	fe 4f       	sbci	r31, 0xFE	; 254
     bac:	81 89       	ldd	r24, Z+17	; 0x11
     bae:	88 23       	and	r24, r24
     bb0:	09 f4       	brne	.+2      	; 0xbb4 <I2C_Loop+0x164>
     bb2:	a8 c0       	rjmp	.+336    	; 0xd04 <I2C_Loop+0x2b4>
     bb4:	54 c0       	rjmp	.+168    	; 0xc5e <I2C_Loop+0x20e>
     bb6:	80 32       	cpi	r24, 0x20	; 32
     bb8:	89 f4       	brne	.+34     	; 0xbdc <I2C_Loop+0x18c>
     bba:	10 92 56 01 	sts	0x0156, r1	; 0x800156 <TWI+0x2>
     bbe:	e0 91 5b 01 	lds	r30, 0x015B	; 0x80015b <TWI+0x7>
     bc2:	8f e0       	ldi	r24, 0x0F	; 15
     bc4:	e8 9f       	mul	r30, r24
     bc6:	f0 01       	movw	r30, r0
     bc8:	11 24       	eor	r1, r1
     bca:	ec 5a       	subi	r30, 0xAC	; 172
     bcc:	fe 4f       	sbci	r31, 0xFE	; 254
     bce:	11 8a       	std	Z+17, r1	; 0x11
     bd0:	12 8a       	std	Z+18, r1	; 0x12
     bd2:	85 e6       	ldi	r24, 0x65	; 101
     bd4:	80 8f       	std	Z+24, r24	; 0x18
     bd6:	10 92 5b 01 	sts	0x015B, r1	; 0x80015b <TWI+0x7>
     bda:	68 c0       	rjmp	.+208    	; 0xcac <I2C_Loop+0x25c>
     bdc:	88 33       	cpi	r24, 0x38	; 56
     bde:	11 f4       	brne	.+4      	; 0xbe4 <I2C_Loop+0x194>
     be0:	82 e0       	ldi	r24, 0x02	; 2
     be2:	91 c0       	rjmp	.+290    	; 0xd06 <I2C_Loop+0x2b6>
     be4:	80 93 57 01 	sts	0x0157, r24	; 0x800157 <TWI+0x3>
     be8:	84 e6       	ldi	r24, 0x64	; 100
     bea:	8d c0       	rjmp	.+282    	; 0xd06 <I2C_Loop+0x2b6>
     bec:	e0 91 5b 01 	lds	r30, 0x015B	; 0x80015b <TWI+0x7>
     bf0:	9f e0       	ldi	r25, 0x0F	; 15
     bf2:	e9 9f       	mul	r30, r25
     bf4:	f0 01       	movw	r30, r0
     bf6:	11 24       	eor	r1, r1
     bf8:	ec 5a       	subi	r30, 0xAC	; 172
     bfa:	fe 4f       	sbci	r31, 0xFE	; 254
     bfc:	81 89       	ldd	r24, Z+17	; 0x11
     bfe:	88 23       	and	r24, r24
     c00:	59 f0       	breq	.+22     	; 0xc18 <I2C_Loop+0x1c8>
     c02:	03 84       	ldd	r0, Z+11	; 0x0b
     c04:	f4 85       	ldd	r31, Z+12	; 0x0c
     c06:	e0 2d       	mov	r30, r0
     c08:	80 81       	ld	r24, Z
     c0a:	80 93 bb 00 	sts	0x00BB, r24	; 0x8000bb <__EEPROM_REGION_LENGTH__+0x7f00bb>
     c0e:	84 e8       	ldi	r24, 0x84	; 132
     c10:	80 93 bc 00 	sts	0x00BC, r24	; 0x8000bc <__EEPROM_REGION_LENGTH__+0x7f00bc>
     c14:	8b e0       	ldi	r24, 0x0B	; 11
     c16:	77 c0       	rjmp	.+238    	; 0xd06 <I2C_Loop+0x2b6>
     c18:	82 89       	ldd	r24, Z+18	; 0x12
     c1a:	81 11       	cpse	r24, r1
     c1c:	e1 cf       	rjmp	.-62     	; 0xbe0 <I2C_Loop+0x190>
     c1e:	10 8e       	std	Z+24, r1	; 0x18
     c20:	84 e9       	ldi	r24, 0x94	; 148
     c22:	80 93 bc 00 	sts	0x00BC, r24	; 0x8000bc <__EEPROM_REGION_LENGTH__+0x7f00bc>
     c26:	7f c0       	rjmp	.+254    	; 0xd26 <I2C_Loop+0x2d6>
     c28:	80 91 bc 00 	lds	r24, 0x00BC	; 0x8000bc <__EEPROM_REGION_LENGTH__+0x7f00bc>
     c2c:	87 ff       	sbrs	r24, 7
     c2e:	7d c0       	rjmp	.+250    	; 0xd2a <I2C_Loop+0x2da>
     c30:	80 91 b9 00 	lds	r24, 0x00B9	; 0x8000b9 <__EEPROM_REGION_LENGTH__+0x7f00b9>
     c34:	88 7f       	andi	r24, 0xF8	; 248
     c36:	80 93 5c 01 	sts	0x015C, r24	; 0x80015c <TWI+0x8>
     c3a:	e0 91 5b 01 	lds	r30, 0x015B	; 0x80015b <TWI+0x7>
     c3e:	88 32       	cpi	r24, 0x28	; 40
     c40:	81 f4       	brne	.+32     	; 0xc62 <I2C_Loop+0x212>
     c42:	8f e0       	ldi	r24, 0x0F	; 15
     c44:	e8 9f       	mul	r30, r24
     c46:	f0 01       	movw	r30, r0
     c48:	11 24       	eor	r1, r1
     c4a:	ec 5a       	subi	r30, 0xAC	; 172
     c4c:	fe 4f       	sbci	r31, 0xFE	; 254
     c4e:	83 85       	ldd	r24, Z+11	; 0x0b
     c50:	94 85       	ldd	r25, Z+12	; 0x0c
     c52:	01 96       	adiw	r24, 0x01	; 1
     c54:	94 87       	std	Z+12, r25	; 0x0c
     c56:	83 87       	std	Z+11, r24	; 0x0b
     c58:	81 89       	ldd	r24, Z+17	; 0x11
     c5a:	81 50       	subi	r24, 0x01	; 1
     c5c:	81 8b       	std	Z+17, r24	; 0x11
     c5e:	8a e0       	ldi	r24, 0x0A	; 10
     c60:	52 c0       	rjmp	.+164    	; 0xd06 <I2C_Loop+0x2b6>
     c62:	94 e9       	ldi	r25, 0x94	; 148
     c64:	90 93 bc 00 	sts	0x00BC, r25	; 0x8000bc <__EEPROM_REGION_LENGTH__+0x7f00bc>
     c68:	9f e0       	ldi	r25, 0x0F	; 15
     c6a:	e9 9f       	mul	r30, r25
     c6c:	f0 01       	movw	r30, r0
     c6e:	11 24       	eor	r1, r1
     c70:	ec 5a       	subi	r30, 0xAC	; 172
     c72:	fe 4f       	sbci	r31, 0xFE	; 254
     c74:	80 8f       	std	Z+24, r24	; 0x18
     c76:	14 86       	std	Z+12, r1	; 0x0c
     c78:	13 86       	std	Z+11, r1	; 0x0b
     c7a:	11 8a       	std	Z+17, r1	; 0x11
     c7c:	51 c0       	rjmp	.+162    	; 0xd20 <I2C_Loop+0x2d0>
     c7e:	e0 91 5b 01 	lds	r30, 0x015B	; 0x80015b <TWI+0x7>
     c82:	8f e0       	ldi	r24, 0x0F	; 15
     c84:	e8 9f       	mul	r30, r24
     c86:	f0 01       	movw	r30, r0
     c88:	11 24       	eor	r1, r1
     c8a:	ec 5a       	subi	r30, 0xAC	; 172
     c8c:	fe 4f       	sbci	r31, 0xFE	; 254
     c8e:	82 89       	ldd	r24, Z+18	; 0x12
     c90:	82 30       	cpi	r24, 0x02	; 2
     c92:	10 f0       	brcs	.+4      	; 0xc98 <I2C_Loop+0x248>
     c94:	84 ec       	ldi	r24, 0xC4	; 196
     c96:	03 c0       	rjmp	.+6      	; 0xc9e <I2C_Loop+0x24e>
     c98:	81 30       	cpi	r24, 0x01	; 1
     c9a:	29 f4       	brne	.+10     	; 0xca6 <I2C_Loop+0x256>
     c9c:	84 e8       	ldi	r24, 0x84	; 132
     c9e:	80 93 bc 00 	sts	0x00BC, r24	; 0x8000bc <__EEPROM_REGION_LENGTH__+0x7f00bc>
     ca2:	8d e0       	ldi	r24, 0x0D	; 13
     ca4:	30 c0       	rjmp	.+96     	; 0xd06 <I2C_Loop+0x2b6>
     ca6:	10 92 56 01 	sts	0x0156, r1	; 0x800156 <TWI+0x2>
     caa:	10 8e       	std	Z+24, r1	; 0x18
     cac:	84 e9       	ldi	r24, 0x94	; 148
     cae:	60 cf       	rjmp	.-320    	; 0xb70 <I2C_Loop+0x120>
     cb0:	80 91 bc 00 	lds	r24, 0x00BC	; 0x8000bc <__EEPROM_REGION_LENGTH__+0x7f00bc>
     cb4:	87 ff       	sbrs	r24, 7
     cb6:	39 c0       	rjmp	.+114    	; 0xd2a <I2C_Loop+0x2da>
     cb8:	80 91 b9 00 	lds	r24, 0x00B9	; 0x8000b9 <__EEPROM_REGION_LENGTH__+0x7f00b9>
     cbc:	98 2f       	mov	r25, r24
     cbe:	98 7f       	andi	r25, 0xF8	; 248
     cc0:	90 93 5c 01 	sts	0x015C, r25	; 0x80015c <TWI+0x8>
     cc4:	80 7f       	andi	r24, 0xF0	; 240
     cc6:	e0 91 5b 01 	lds	r30, 0x015B	; 0x80015b <TWI+0x7>
     cca:	80 35       	cpi	r24, 0x50	; 80
     ccc:	f9 f4       	brne	.+62     	; 0xd0c <I2C_Loop+0x2bc>
     cce:	8f e0       	ldi	r24, 0x0F	; 15
     cd0:	8e 9f       	mul	r24, r30
     cd2:	f0 01       	movw	r30, r0
     cd4:	11 24       	eor	r1, r1
     cd6:	ec 5a       	subi	r30, 0xAC	; 172
     cd8:	fe 4f       	sbci	r31, 0xFE	; 254
     cda:	05 84       	ldd	r0, Z+13	; 0x0d
     cdc:	f6 85       	ldd	r31, Z+14	; 0x0e
     cde:	e0 2d       	mov	r30, r0
     ce0:	90 91 bb 00 	lds	r25, 0x00BB	; 0x8000bb <__EEPROM_REGION_LENGTH__+0x7f00bb>
     ce4:	90 83       	st	Z, r25
     ce6:	e0 91 5b 01 	lds	r30, 0x015B	; 0x80015b <TWI+0x7>
     cea:	8e 9f       	mul	r24, r30
     cec:	f0 01       	movw	r30, r0
     cee:	11 24       	eor	r1, r1
     cf0:	ec 5a       	subi	r30, 0xAC	; 172
     cf2:	fe 4f       	sbci	r31, 0xFE	; 254
     cf4:	85 85       	ldd	r24, Z+13	; 0x0d
     cf6:	96 85       	ldd	r25, Z+14	; 0x0e
     cf8:	01 96       	adiw	r24, 0x01	; 1
     cfa:	96 87       	std	Z+14, r25	; 0x0e
     cfc:	85 87       	std	Z+13, r24	; 0x0d
     cfe:	82 89       	ldd	r24, Z+18	; 0x12
     d00:	81 50       	subi	r24, 0x01	; 1
     d02:	82 8b       	std	Z+18, r24	; 0x12
     d04:	8c e0       	ldi	r24, 0x0C	; 12
     d06:	80 93 56 01 	sts	0x0156, r24	; 0x800156 <TWI+0x2>
     d0a:	08 95       	ret
     d0c:	84 e9       	ldi	r24, 0x94	; 148
     d0e:	80 93 bc 00 	sts	0x00BC, r24	; 0x8000bc <__EEPROM_REGION_LENGTH__+0x7f00bc>
     d12:	8f e0       	ldi	r24, 0x0F	; 15
     d14:	e8 9f       	mul	r30, r24
     d16:	f0 01       	movw	r30, r0
     d18:	11 24       	eor	r1, r1
     d1a:	ec 5a       	subi	r30, 0xAC	; 172
     d1c:	fe 4f       	sbci	r31, 0xFE	; 254
     d1e:	90 8f       	std	Z+24, r25	; 0x18
     d20:	16 86       	std	Z+14, r1	; 0x0e
     d22:	15 86       	std	Z+13, r1	; 0x0d
     d24:	12 8a       	std	Z+18, r1	; 0x12
     d26:	10 92 56 01 	sts	0x0156, r1	; 0x800156 <TWI+0x2>
     d2a:	08 95       	ret

00000d2c <I2C_Init>:
     d2c:	e4 e5       	ldi	r30, 0x54	; 84
     d2e:	f1 e0       	ldi	r31, 0x01	; 1
     d30:	81 e0       	ldi	r24, 0x01	; 1
     d32:	81 87       	std	Z+9, r24	; 0x09
     d34:	82 83       	std	Z+2, r24	; 0x02
     d36:	11 82       	std	Z+1, r1	; 0x01
     d38:	08 95       	ret

00000d3a <I2C_Enable>:
     d3a:	81 e0       	ldi	r24, 0x01	; 1
     d3c:	80 93 54 01 	sts	0x0154, r24	; 0x800154 <TWI>
     d40:	08 95       	ret

00000d42 <I2C_ID_State>:
     d42:	2f e0       	ldi	r18, 0x0F	; 15
     d44:	82 9f       	mul	r24, r18
     d46:	c0 01       	movw	r24, r0
     d48:	11 24       	eor	r1, r1
     d4a:	fc 01       	movw	r30, r24
     d4c:	ec 5a       	subi	r30, 0xAC	; 172
     d4e:	fe 4f       	sbci	r31, 0xFE	; 254
     d50:	80 8d       	ldd	r24, Z+24	; 0x18
     d52:	08 95       	ret

00000d54 <I2C_ID_Ack_Error>:
     d54:	2f e0       	ldi	r18, 0x0F	; 15
     d56:	82 9f       	mul	r24, r18
     d58:	c0 01       	movw	r24, r0
     d5a:	11 24       	eor	r1, r1
     d5c:	fc 01       	movw	r30, r24
     d5e:	ec 5a       	subi	r30, 0xAC	; 172
     d60:	fe 4f       	sbci	r31, 0xFE	; 254
     d62:	10 8e       	std	Z+24, r1	; 0x18
     d64:	08 95       	ret

00000d66 <I2C_Ready>:
     d66:	2f e0       	ldi	r18, 0x0F	; 15
     d68:	82 9f       	mul	r24, r18
     d6a:	c0 01       	movw	r24, r0
     d6c:	11 24       	eor	r1, r1
     d6e:	fc 01       	movw	r30, r24
     d70:	ec 5a       	subi	r30, 0xAC	; 172
     d72:	fe 4f       	sbci	r31, 0xFE	; 254
     d74:	80 8d       	ldd	r24, Z+24	; 0x18
     d76:	81 11       	cpse	r24, r1
     d78:	05 c0       	rjmp	.+10     	; 0xd84 <I2C_Ready+0x1e>
     d7a:	81 e0       	ldi	r24, 0x01	; 1
     d7c:	90 91 55 01 	lds	r25, 0x0155	; 0x800155 <TWI+0x1>
     d80:	91 11       	cpse	r25, r1
     d82:	01 c0       	rjmp	.+2      	; 0xd86 <I2C_Ready+0x20>
     d84:	80 e0       	ldi	r24, 0x00	; 0
     d86:	08 95       	ret

00000d88 <I2C_Send_ST>:
     d88:	9c 01       	movw	r18, r24
     d8a:	21 50       	subi	r18, 0x01	; 1
     d8c:	31 40       	sbci	r19, 0x01	; 1
     d8e:	2e 3f       	cpi	r18, 0xFE	; 254
     d90:	33 40       	sbci	r19, 0x03	; 3
     d92:	80 f4       	brcc	.+32     	; 0xdb4 <I2C_Send_ST+0x2c>
     d94:	2f e0       	ldi	r18, 0x0F	; 15
     d96:	42 9f       	mul	r20, r18
     d98:	f0 01       	movw	r30, r0
     d9a:	11 24       	eor	r1, r1
     d9c:	ec 5a       	subi	r30, 0xAC	; 172
     d9e:	fe 4f       	sbci	r31, 0xFE	; 254
     da0:	94 87       	std	Z+12, r25	; 0x0c
     da2:	83 87       	std	Z+11, r24	; 0x0b
     da4:	16 86       	std	Z+14, r1	; 0x0e
     da6:	15 86       	std	Z+13, r1	; 0x0d
     da8:	61 8b       	std	Z+17, r22	; 0x11
     daa:	12 8a       	std	Z+18, r1	; 0x12
     dac:	81 e0       	ldi	r24, 0x01	; 1
     dae:	83 8b       	std	Z+19, r24	; 0x13
     db0:	82 e0       	ldi	r24, 0x02	; 2
     db2:	80 8f       	std	Z+24, r24	; 0x18
     db4:	08 95       	ret

00000db6 <I2C_Send_STr>:
     db6:	0f 93       	push	r16
     db8:	fc 01       	movw	r30, r24
     dba:	e1 50       	subi	r30, 0x01	; 1
     dbc:	f1 40       	sbci	r31, 0x01	; 1
     dbe:	ee 3f       	cpi	r30, 0xFE	; 254
     dc0:	f3 40       	sbci	r31, 0x03	; 3
     dc2:	b0 f4       	brcc	.+44     	; 0xdf0 <I2C_Send_STr+0x3a>
     dc4:	fb 01       	movw	r30, r22
     dc6:	e1 50       	subi	r30, 0x01	; 1
     dc8:	f1 40       	sbci	r31, 0x01	; 1
     dca:	ee 3f       	cpi	r30, 0xFE	; 254
     dcc:	f3 40       	sbci	r31, 0x03	; 3
     dce:	80 f4       	brcc	.+32     	; 0xdf0 <I2C_Send_STr+0x3a>
     dd0:	3f e0       	ldi	r19, 0x0F	; 15
     dd2:	03 9f       	mul	r16, r19
     dd4:	f0 01       	movw	r30, r0
     dd6:	11 24       	eor	r1, r1
     dd8:	ec 5a       	subi	r30, 0xAC	; 172
     dda:	fe 4f       	sbci	r31, 0xFE	; 254
     ddc:	94 87       	std	Z+12, r25	; 0x0c
     dde:	83 87       	std	Z+11, r24	; 0x0b
     de0:	76 87       	std	Z+14, r23	; 0x0e
     de2:	65 87       	std	Z+13, r22	; 0x0d
     de4:	41 8b       	std	Z+17, r20	; 0x11
     de6:	22 8b       	std	Z+18, r18	; 0x12
     de8:	81 e0       	ldi	r24, 0x01	; 1
     dea:	83 8b       	std	Z+19, r24	; 0x13
     dec:	82 e0       	ldi	r24, 0x02	; 2
     dee:	80 8f       	std	Z+24, r24	; 0x18
     df0:	0f 91       	pop	r16
     df2:	08 95       	ret

00000df4 <I2C_Get_Ident>:
     df4:	90 91 55 01 	lds	r25, 0x0155	; 0x800155 <TWI+0x1>
     df8:	91 30       	cpi	r25, 0x01	; 1
     dfa:	29 f5       	brne	.+74     	; 0xe46 <I2C_Get_Ident+0x52>
     dfc:	90 91 7c 01 	lds	r25, 0x017C	; 0x80017c <TWI+0x28>
     e00:	99 23       	and	r25, r25
     e02:	61 f0       	breq	.+24     	; 0xe1c <I2C_Get_Ident+0x28>
     e04:	90 91 8b 01 	lds	r25, 0x018B	; 0x80018b <TWI+0x37>
     e08:	99 23       	and	r25, r25
     e0a:	61 f0       	breq	.+24     	; 0xe24 <I2C_Get_Ident+0x30>
     e0c:	90 91 9a 01 	lds	r25, 0x019A	; 0x80019a <TWI+0x46>
     e10:	91 11       	cpse	r25, r1
     e12:	19 c0       	rjmp	.+50     	; 0xe46 <I2C_Get_Ident+0x52>
     e14:	93 e0       	ldi	r25, 0x03	; 3
     e16:	23 e0       	ldi	r18, 0x03	; 3
     e18:	30 e0       	ldi	r19, 0x00	; 0
     e1a:	07 c0       	rjmp	.+14     	; 0xe2a <I2C_Get_Ident+0x36>
     e1c:	91 e0       	ldi	r25, 0x01	; 1
     e1e:	21 e0       	ldi	r18, 0x01	; 1
     e20:	30 e0       	ldi	r19, 0x00	; 0
     e22:	03 c0       	rjmp	.+6      	; 0xe2a <I2C_Get_Ident+0x36>
     e24:	92 e0       	ldi	r25, 0x02	; 2
     e26:	22 e0       	ldi	r18, 0x02	; 2
     e28:	30 e0       	ldi	r19, 0x00	; 0
     e2a:	4f e0       	ldi	r20, 0x0F	; 15
     e2c:	42 9f       	mul	r20, r18
     e2e:	f0 01       	movw	r30, r0
     e30:	43 9f       	mul	r20, r19
     e32:	f0 0d       	add	r31, r0
     e34:	11 24       	eor	r1, r1
     e36:	ec 5a       	subi	r30, 0xAC	; 172
     e38:	fe 4f       	sbci	r31, 0xFE	; 254
     e3a:	21 e0       	ldi	r18, 0x01	; 1
     e3c:	21 8f       	std	Z+25, r18	; 0x19
     e3e:	87 8b       	std	Z+23, r24	; 0x17
     e40:	65 8b       	std	Z+21, r22	; 0x15
     e42:	89 2f       	mov	r24, r25
     e44:	08 95       	ret
     e46:	80 e0       	ldi	r24, 0x00	; 0
     e48:	08 95       	ret

00000e4a <I2C_Free_Ident>:
     e4a:	2f e0       	ldi	r18, 0x0F	; 15
     e4c:	82 9f       	mul	r24, r18
     e4e:	c0 01       	movw	r24, r0
     e50:	11 24       	eor	r1, r1
     e52:	fc 01       	movw	r30, r24
     e54:	ec 5a       	subi	r30, 0xAC	; 172
     e56:	fe 4f       	sbci	r31, 0xFE	; 254
     e58:	11 8e       	std	Z+25, r1	; 0x19
     e5a:	08 95       	ret

00000e5c <Next_Nixie>:
     e5c:	85 b1       	in	r24, 0x05	; 5
     e5e:	90 91 b6 01 	lds	r25, 0x01B6	; 0x8001b6 <N_Clock+0x9>
     e62:	99 23       	and	r25, r25
     e64:	11 f0       	breq	.+4      	; 0xe6a <Next_Nixie+0xe>
     e66:	88 7f       	andi	r24, 0xF8	; 248
     e68:	31 c0       	rjmp	.+98     	; 0xecc <Next_Nixie+0x70>
     e6a:	90 91 b8 01 	lds	r25, 0x01B8	; 0x8001b8 <N_Clock+0xb>
     e6e:	91 11       	cpse	r25, r1
     e70:	13 c0       	rjmp	.+38     	; 0xe98 <Next_Nixie+0x3c>
     e72:	90 91 e5 01 	lds	r25, 0x01E5	; 0x8001e5 <N_Clock+0x38>
     e76:	90 93 b7 01 	sts	0x01B7, r25	; 0x8001b7 <N_Clock+0xa>
     e7a:	90 91 e6 01 	lds	r25, 0x01E6	; 0x8001e6 <N_Clock+0x39>
     e7e:	90 93 b8 01 	sts	0x01B8, r25	; 0x8001b8 <N_Clock+0xb>
     e82:	88 7f       	andi	r24, 0xF8	; 248
     e84:	9f ef       	ldi	r25, 0xFF	; 255
     e86:	9b b9       	out	0x0b, r25	; 11
     e88:	90 91 ad 01 	lds	r25, 0x01AD	; 0x8001ad <N_Clock>
     e8c:	9f 5f       	subi	r25, 0xFF	; 255
     e8e:	94 30       	cpi	r25, 0x04	; 4
     e90:	08 f0       	brcs	.+2      	; 0xe94 <Next_Nixie+0x38>
     e92:	91 e0       	ldi	r25, 0x01	; 1
     e94:	90 93 ad 01 	sts	0x01AD, r25	; 0x8001ad <N_Clock>
     e98:	90 91 b7 01 	lds	r25, 0x01B7	; 0x8001b7 <N_Clock+0xa>
     e9c:	91 11       	cpse	r25, r1
     e9e:	16 c0       	rjmp	.+44     	; 0xecc <Next_Nixie+0x70>
     ea0:	90 91 ad 01 	lds	r25, 0x01AD	; 0x8001ad <N_Clock>
     ea4:	92 30       	cpi	r25, 0x02	; 2
     ea6:	49 f0       	breq	.+18     	; 0xeba <Next_Nixie+0x5e>
     ea8:	93 30       	cpi	r25, 0x03	; 3
     eaa:	61 f0       	breq	.+24     	; 0xec4 <Next_Nixie+0x68>
     eac:	91 30       	cpi	r25, 0x01	; 1
     eae:	71 f4       	brne	.+28     	; 0xecc <Next_Nixie+0x70>
     eb0:	90 91 ae 01 	lds	r25, 0x01AE	; 0x8001ae <N_Clock+0x1>
     eb4:	9b b9       	out	0x0b, r25	; 11
     eb6:	81 60       	ori	r24, 0x01	; 1
     eb8:	09 c0       	rjmp	.+18     	; 0xecc <Next_Nixie+0x70>
     eba:	90 91 af 01 	lds	r25, 0x01AF	; 0x8001af <N_Clock+0x2>
     ebe:	9b b9       	out	0x0b, r25	; 11
     ec0:	82 60       	ori	r24, 0x02	; 2
     ec2:	04 c0       	rjmp	.+8      	; 0xecc <Next_Nixie+0x70>
     ec4:	90 91 b0 01 	lds	r25, 0x01B0	; 0x8001b0 <N_Clock+0x3>
     ec8:	9b b9       	out	0x0b, r25	; 11
     eca:	84 60       	ori	r24, 0x04	; 4
     ecc:	85 b9       	out	0x05, r24	; 5
     ece:	08 95       	ret

00000ed0 <Nixie_Update>:
     ed0:	81 30       	cpi	r24, 0x01	; 1
     ed2:	89 f0       	breq	.+34     	; 0xef6 <Nixie_Update+0x26>
     ed4:	38 f0       	brcs	.+14     	; 0xee4 <Nixie_Update+0x14>
     ed6:	82 30       	cpi	r24, 0x02	; 2
     ed8:	09 f4       	brne	.+2      	; 0xedc <Nixie_Update+0xc>
     eda:	41 c0       	rjmp	.+130    	; 0xf5e <Nixie_Update+0x8e>
     edc:	83 30       	cpi	r24, 0x03	; 3
     ede:	09 f4       	brne	.+2      	; 0xee2 <Nixie_Update+0x12>
     ee0:	a8 c0       	rjmp	.+336    	; 0x1032 <Nixie_Update+0x162>
     ee2:	08 95       	ret
     ee4:	80 e0       	ldi	r24, 0x00	; 0
     ee6:	11 d5       	rcall	.+2594   	; 0x190a <Power_Mode>
     ee8:	2c 98       	cbi	0x05, 4	; 5
     eea:	8a ea       	ldi	r24, 0xAA	; 170
     eec:	80 93 ae 01 	sts	0x01AE, r24	; 0x8001ae <N_Clock+0x1>
     ef0:	80 93 af 01 	sts	0x01AF, r24	; 0x8001af <N_Clock+0x2>
     ef4:	c5 c0       	rjmp	.+394    	; 0x1080 <Nixie_Update+0x1b0>
     ef6:	81 e0       	ldi	r24, 0x01	; 1
     ef8:	08 d5       	rcall	.+2576   	; 0x190a <Power_Mode>
     efa:	80 91 b3 01 	lds	r24, 0x01B3	; 0x8001b3 <N_Clock+0x6>
     efe:	83 30       	cpi	r24, 0x03	; 3
     f00:	41 f4       	brne	.+16     	; 0xf12 <Nixie_Update+0x42>
     f02:	db d6       	rcall	.+3510   	; 0x1cba <Timer_Pulse_100ms>
     f04:	88 23       	and	r24, r24
     f06:	61 f0       	breq	.+24     	; 0xf20 <Nixie_Update+0x50>
     f08:	95 b1       	in	r25, 0x05	; 5
     f0a:	80 e1       	ldi	r24, 0x10	; 16
     f0c:	89 27       	eor	r24, r25
     f0e:	85 b9       	out	0x05, r24	; 5
     f10:	07 c0       	rjmp	.+14     	; 0xf20 <Nixie_Update+0x50>
     f12:	80 91 e7 01 	lds	r24, 0x01E7	; 0x8001e7 <RTC>
     f16:	80 ff       	sbrs	r24, 0
     f18:	02 c0       	rjmp	.+4      	; 0xf1e <Nixie_Update+0x4e>
     f1a:	2c 9a       	sbi	0x05, 4	; 5
     f1c:	01 c0       	rjmp	.+2      	; 0xf20 <Nixie_Update+0x50>
     f1e:	2c 98       	cbi	0x05, 4	; 5
     f20:	80 91 b3 01 	lds	r24, 0x01B3	; 0x8001b3 <N_Clock+0x6>
     f24:	83 30       	cpi	r24, 0x03	; 3
     f26:	09 f0       	breq	.+2      	; 0xf2a <Nixie_Update+0x5a>
     f28:	60 c0       	rjmp	.+192    	; 0xfea <Nixie_Update+0x11a>
     f2a:	80 91 b5 01 	lds	r24, 0x01B5	; 0x8001b5 <N_Clock+0x8>
     f2e:	82 30       	cpi	r24, 0x02	; 2
     f30:	09 f4       	brne	.+2      	; 0xf34 <Nixie_Update+0x64>
     f32:	41 c0       	rjmp	.+130    	; 0xfb6 <Nixie_Update+0xe6>
     f34:	83 30       	cpi	r24, 0x03	; 3
     f36:	09 f4       	brne	.+2      	; 0xf3a <Nixie_Update+0x6a>
     f38:	49 c0       	rjmp	.+146    	; 0xfcc <Nixie_Update+0xfc>
     f3a:	81 30       	cpi	r24, 0x01	; 1
     f3c:	09 f0       	breq	.+2      	; 0xf40 <Nixie_Update+0x70>
     f3e:	a2 c0       	rjmp	.+324    	; 0x1084 <Nixie_Update+0x1b4>
     f40:	80 91 e9 01 	lds	r24, 0x01E9	; 0x8001e9 <RTC+0x2>
     f44:	89 d9       	rcall	.-3310   	; 0x258 <DecimalToBCD>
     f46:	80 93 ae 01 	sts	0x01AE, r24	; 0x8001ae <N_Clock+0x1>
     f4a:	80 91 e8 01 	lds	r24, 0x01E8	; 0x8001e8 <RTC+0x1>
     f4e:	84 d9       	rcall	.-3320   	; 0x258 <DecimalToBCD>
     f50:	80 93 af 01 	sts	0x01AF, r24	; 0x8001af <N_Clock+0x2>
     f54:	80 91 e7 01 	lds	r24, 0x01E7	; 0x8001e7 <RTC>
     f58:	80 ff       	sbrs	r24, 0
     f5a:	2b c0       	rjmp	.+86     	; 0xfb2 <Nixie_Update+0xe2>
     f5c:	8e c0       	rjmp	.+284    	; 0x107a <Nixie_Update+0x1aa>
     f5e:	81 e0       	ldi	r24, 0x01	; 1
     f60:	d4 d4       	rcall	.+2472   	; 0x190a <Power_Mode>
     f62:	80 91 b3 01 	lds	r24, 0x01B3	; 0x8001b3 <N_Clock+0x6>
     f66:	83 30       	cpi	r24, 0x03	; 3
     f68:	09 f0       	breq	.+2      	; 0xf6c <Nixie_Update+0x9c>
     f6a:	43 c0       	rjmp	.+134    	; 0xff2 <Nixie_Update+0x122>
     f6c:	a6 d6       	rcall	.+3404   	; 0x1cba <Timer_Pulse_100ms>
     f6e:	88 23       	and	r24, r24
     f70:	21 f0       	breq	.+8      	; 0xf7a <Nixie_Update+0xaa>
     f72:	95 b1       	in	r25, 0x05	; 5
     f74:	80 e1       	ldi	r24, 0x10	; 16
     f76:	89 27       	eor	r24, r25
     f78:	85 b9       	out	0x05, r24	; 5
     f7a:	80 91 b3 01 	lds	r24, 0x01B3	; 0x8001b3 <N_Clock+0x6>
     f7e:	83 30       	cpi	r24, 0x03	; 3
     f80:	09 f0       	breq	.+2      	; 0xf84 <Nixie_Update+0xb4>
     f82:	53 c0       	rjmp	.+166    	; 0x102a <Nixie_Update+0x15a>
     f84:	80 91 b5 01 	lds	r24, 0x01B5	; 0x8001b5 <N_Clock+0x8>
     f88:	8c 30       	cpi	r24, 0x0C	; 12
     f8a:	a9 f1       	breq	.+106    	; 0xff6 <Nixie_Update+0x126>
     f8c:	8d 30       	cpi	r24, 0x0D	; 13
     f8e:	f1 f1       	breq	.+124    	; 0x100c <Nixie_Update+0x13c>
     f90:	8b 30       	cpi	r24, 0x0B	; 11
     f92:	09 f0       	breq	.+2      	; 0xf96 <Nixie_Update+0xc6>
     f94:	77 c0       	rjmp	.+238    	; 0x1084 <Nixie_Update+0x1b4>
     f96:	80 91 ea 01 	lds	r24, 0x01EA	; 0x8001ea <RTC+0x3>
     f9a:	5e d9       	rcall	.-3396   	; 0x258 <DecimalToBCD>
     f9c:	80 93 ae 01 	sts	0x01AE, r24	; 0x8001ae <N_Clock+0x1>
     fa0:	80 91 eb 01 	lds	r24, 0x01EB	; 0x8001eb <RTC+0x4>
     fa4:	59 d9       	rcall	.-3406   	; 0x258 <DecimalToBCD>
     fa6:	80 93 af 01 	sts	0x01AF, r24	; 0x8001af <N_Clock+0x2>
     faa:	80 91 e7 01 	lds	r24, 0x01E7	; 0x8001e7 <RTC>
     fae:	80 fd       	sbrc	r24, 0
     fb0:	39 c0       	rjmp	.+114    	; 0x1024 <Nixie_Update+0x154>
     fb2:	8a ea       	ldi	r24, 0xAA	; 170
     fb4:	65 c0       	rjmp	.+202    	; 0x1080 <Nixie_Update+0x1b0>
     fb6:	80 91 e9 01 	lds	r24, 0x01E9	; 0x8001e9 <RTC+0x2>
     fba:	4e d9       	rcall	.-3428   	; 0x258 <DecimalToBCD>
     fbc:	80 93 ae 01 	sts	0x01AE, r24	; 0x8001ae <N_Clock+0x1>
     fc0:	80 91 e7 01 	lds	r24, 0x01E7	; 0x8001e7 <RTC>
     fc4:	80 fd       	sbrc	r24, 0
     fc6:	09 c0       	rjmp	.+18     	; 0xfda <Nixie_Update+0x10a>
     fc8:	8a ea       	ldi	r24, 0xAA	; 170
     fca:	0a c0       	rjmp	.+20     	; 0xfe0 <Nixie_Update+0x110>
     fcc:	80 91 e7 01 	lds	r24, 0x01E7	; 0x8001e7 <RTC>
     fd0:	80 fd       	sbrc	r24, 0
     fd2:	0b c0       	rjmp	.+22     	; 0xfea <Nixie_Update+0x11a>
     fd4:	8a ea       	ldi	r24, 0xAA	; 170
     fd6:	80 93 ae 01 	sts	0x01AE, r24	; 0x8001ae <N_Clock+0x1>
     fda:	80 91 e8 01 	lds	r24, 0x01E8	; 0x8001e8 <RTC+0x1>
     fde:	3c d9       	rcall	.-3464   	; 0x258 <DecimalToBCD>
     fe0:	80 93 af 01 	sts	0x01AF, r24	; 0x8001af <N_Clock+0x2>
     fe4:	80 91 e7 01 	lds	r24, 0x01E7	; 0x8001e7 <RTC>
     fe8:	48 c0       	rjmp	.+144    	; 0x107a <Nixie_Update+0x1aa>
     fea:	80 91 e9 01 	lds	r24, 0x01E9	; 0x8001e9 <RTC+0x2>
     fee:	34 d9       	rcall	.-3480   	; 0x258 <DecimalToBCD>
     ff0:	f2 cf       	rjmp	.-28     	; 0xfd6 <Nixie_Update+0x106>
     ff2:	2c 98       	cbi	0x05, 4	; 5
     ff4:	c2 cf       	rjmp	.-124    	; 0xf7a <Nixie_Update+0xaa>
     ff6:	80 91 ea 01 	lds	r24, 0x01EA	; 0x8001ea <RTC+0x3>
     ffa:	2e d9       	rcall	.-3492   	; 0x258 <DecimalToBCD>
     ffc:	80 93 ae 01 	sts	0x01AE, r24	; 0x8001ae <N_Clock+0x1>
    1000:	80 91 e7 01 	lds	r24, 0x01E7	; 0x8001e7 <RTC>
    1004:	80 fd       	sbrc	r24, 0
    1006:	09 c0       	rjmp	.+18     	; 0x101a <Nixie_Update+0x14a>
    1008:	8a ea       	ldi	r24, 0xAA	; 170
    100a:	0a c0       	rjmp	.+20     	; 0x1020 <Nixie_Update+0x150>
    100c:	80 91 e7 01 	lds	r24, 0x01E7	; 0x8001e7 <RTC>
    1010:	80 fd       	sbrc	r24, 0
    1012:	0b c0       	rjmp	.+22     	; 0x102a <Nixie_Update+0x15a>
    1014:	8a ea       	ldi	r24, 0xAA	; 170
    1016:	80 93 ae 01 	sts	0x01AE, r24	; 0x8001ae <N_Clock+0x1>
    101a:	80 91 eb 01 	lds	r24, 0x01EB	; 0x8001eb <RTC+0x4>
    101e:	1c d9       	rcall	.-3528   	; 0x258 <DecimalToBCD>
    1020:	80 93 af 01 	sts	0x01AF, r24	; 0x8001af <N_Clock+0x2>
    1024:	80 91 ec 01 	lds	r24, 0x01EC	; 0x8001ec <RTC+0x5>
    1028:	28 c0       	rjmp	.+80     	; 0x107a <Nixie_Update+0x1aa>
    102a:	80 91 ea 01 	lds	r24, 0x01EA	; 0x8001ea <RTC+0x3>
    102e:	14 d9       	rcall	.-3544   	; 0x258 <DecimalToBCD>
    1030:	f2 cf       	rjmp	.-28     	; 0x1016 <Nixie_Update+0x146>
    1032:	81 e0       	ldi	r24, 0x01	; 1
    1034:	6a d4       	rcall	.+2260   	; 0x190a <Power_Mode>
    1036:	41 d6       	rcall	.+3202   	; 0x1cba <Timer_Pulse_100ms>
    1038:	88 23       	and	r24, r24
    103a:	21 f0       	breq	.+8      	; 0x1044 <Nixie_Update+0x174>
    103c:	95 b1       	in	r25, 0x05	; 5
    103e:	80 e1       	ldi	r24, 0x10	; 16
    1040:	89 27       	eor	r24, r25
    1042:	85 b9       	out	0x05, r24	; 5
    1044:	80 91 b5 01 	lds	r24, 0x01B5	; 0x8001b5 <N_Clock+0x8>
    1048:	07 d9       	rcall	.-3570   	; 0x258 <DecimalToBCD>
    104a:	80 93 ae 01 	sts	0x01AE, r24	; 0x8001ae <N_Clock+0x1>
    104e:	80 91 b1 01 	lds	r24, 0x01B1	; 0x8001b1 <N_Clock+0x4>
    1052:	8a 30       	cpi	r24, 0x0A	; 10
    1054:	10 f0       	brcs	.+4      	; 0x105a <Nixie_Update+0x18a>
    1056:	00 d9       	rcall	.-3584   	; 0x258 <DecimalToBCD>
    1058:	08 c0       	rjmp	.+16     	; 0x106a <Nixie_Update+0x19a>
    105a:	90 91 af 01 	lds	r25, 0x01AF	; 0x8001af <N_Clock+0x2>
    105e:	99 23       	and	r25, r25
    1060:	19 f0       	breq	.+6      	; 0x1068 <Nixie_Update+0x198>
    1062:	fa d8       	rcall	.-3596   	; 0x258 <DecimalToBCD>
    1064:	80 56       	subi	r24, 0x60	; 96
    1066:	01 c0       	rjmp	.+2      	; 0x106a <Nixie_Update+0x19a>
    1068:	8a ea       	ldi	r24, 0xAA	; 170
    106a:	80 93 af 01 	sts	0x01AF, r24	; 0x8001af <N_Clock+0x2>
    106e:	80 91 b0 01 	lds	r24, 0x01B0	; 0x8001b0 <N_Clock+0x3>
    1072:	88 23       	and	r24, r24
    1074:	21 f0       	breq	.+8      	; 0x107e <Nixie_Update+0x1ae>
    1076:	80 91 b2 01 	lds	r24, 0x01B2	; 0x8001b2 <N_Clock+0x5>
    107a:	ee d8       	rcall	.-3620   	; 0x258 <DecimalToBCD>
    107c:	01 c0       	rjmp	.+2      	; 0x1080 <Nixie_Update+0x1b0>
    107e:	80 ea       	ldi	r24, 0xA0	; 160
    1080:	80 93 b0 01 	sts	0x01B0, r24	; 0x8001b0 <N_Clock+0x3>
    1084:	08 95       	ret

00001086 <Nixie_Loop>:
    1086:	ef 92       	push	r14
    1088:	ff 92       	push	r15
    108a:	0f 93       	push	r16
    108c:	1f 93       	push	r17
    108e:	cf 93       	push	r28
    1090:	df 93       	push	r29
    1092:	80 91 b3 01 	lds	r24, 0x01B3	; 0x8001b3 <N_Clock+0x6>
    1096:	81 30       	cpi	r24, 0x01	; 1
    1098:	29 f0       	breq	.+10     	; 0x10a4 <Nixie_Loop+0x1e>
    109a:	08 f4       	brcc	.+2      	; 0x109e <Nixie_Loop+0x18>
    109c:	99 c2       	rjmp	.+1330   	; 0x15d0 <Nixie_Loop+0x54a>
    109e:	85 30       	cpi	r24, 0x05	; 5
    10a0:	58 f0       	brcs	.+22     	; 0x10b8 <Nixie_Loop+0x32>
    10a2:	96 c2       	rjmp	.+1324   	; 0x15d0 <Nixie_Loop+0x54a>
    10a4:	c0 91 b9 01 	lds	r28, 0x01B9	; 0x8001b9 <N_Clock+0xc>
    10a8:	c2 30       	cpi	r28, 0x02	; 2
    10aa:	09 f0       	breq	.+2      	; 0x10ae <Nixie_Loop+0x28>
    10ac:	91 c2       	rjmp	.+1314   	; 0x15d0 <Nixie_Loop+0x54a>
    10ae:	81 e0       	ldi	r24, 0x01	; 1
    10b0:	2c d4       	rcall	.+2136   	; 0x190a <Power_Mode>
    10b2:	c0 93 b3 01 	sts	0x01B3, r28	; 0x8001b3 <N_Clock+0x6>
    10b6:	8c c2       	rjmp	.+1304   	; 0x15d0 <Nixie_Loop+0x54a>
    10b8:	d1 de       	rcall	.-606    	; 0xe5c <Next_Nixie>
    10ba:	81 e0       	ldi	r24, 0x01	; 1
    10bc:	b2 d8       	rcall	.-3740   	; 0x222 <Analog_Channel_Ready>
    10be:	88 23       	and	r24, r24
    10c0:	31 f0       	breq	.+12     	; 0x10ce <Nixie_Loop+0x48>
    10c2:	81 e0       	ldi	r24, 0x01	; 1
    10c4:	98 d8       	rcall	.-3792   	; 0x1f6 <Analog_Channel_Read>
    10c6:	90 93 c6 01 	sts	0x01C6, r25	; 0x8001c6 <N_Clock+0x19>
    10ca:	80 93 c5 01 	sts	0x01C5, r24	; 0x8001c5 <N_Clock+0x18>
    10ce:	43 e0       	ldi	r20, 0x03	; 3
    10d0:	50 e0       	ldi	r21, 0x00	; 0
    10d2:	67 ec       	ldi	r22, 0xC7	; 199
    10d4:	71 e0       	ldi	r23, 0x01	; 1
    10d6:	8a ec       	ldi	r24, 0xCA	; 202
    10d8:	91 e0       	ldi	r25, 0x01	; 1
    10da:	39 d6       	rcall	.+3186   	; 0x1d4e <memcmp>
    10dc:	8c 01       	movw	r16, r24
    10de:	43 e0       	ldi	r20, 0x03	; 3
    10e0:	50 e0       	ldi	r21, 0x00	; 0
    10e2:	67 ee       	ldi	r22, 0xE7	; 231
    10e4:	71 e0       	ldi	r23, 0x01	; 1
    10e6:	8a ec       	ldi	r24, 0xCA	; 202
    10e8:	91 e0       	ldi	r25, 0x01	; 1
    10ea:	31 d6       	rcall	.+3170   	; 0x1d4e <memcmp>
    10ec:	ec 01       	movw	r28, r24
    10ee:	43 e0       	ldi	r20, 0x03	; 3
    10f0:	50 e0       	ldi	r21, 0x00	; 0
    10f2:	67 ee       	ldi	r22, 0xE7	; 231
    10f4:	71 e0       	ldi	r23, 0x01	; 1
    10f6:	87 ec       	ldi	r24, 0xC7	; 199
    10f8:	91 e0       	ldi	r25, 0x01	; 1
    10fa:	29 d6       	rcall	.+3154   	; 0x1d4e <memcmp>
    10fc:	10 16       	cp	r1, r16
    10fe:	11 06       	cpc	r1, r17
    1100:	1c f4       	brge	.+6      	; 0x1108 <Nixie_Loop+0x82>
    1102:	d7 fd       	sbrc	r29, 7
    1104:	0a c0       	rjmp	.+20     	; 0x111a <Nixie_Loop+0x94>
    1106:	03 c0       	rjmp	.+6      	; 0x110e <Nixie_Loop+0x88>
    1108:	1c 16       	cp	r1, r28
    110a:	1d 06       	cpc	r1, r29
    110c:	34 f0       	brlt	.+12     	; 0x111a <Nixie_Loop+0x94>
    110e:	c1 e0       	ldi	r28, 0x01	; 1
    1110:	18 16       	cp	r1, r24
    1112:	19 06       	cpc	r1, r25
    1114:	1c f0       	brlt	.+6      	; 0x111c <Nixie_Loop+0x96>
    1116:	c0 e0       	ldi	r28, 0x00	; 0
    1118:	01 c0       	rjmp	.+2      	; 0x111c <Nixie_Loop+0x96>
    111a:	c1 e0       	ldi	r28, 0x01	; 1
    111c:	80 91 c0 01 	lds	r24, 0x01C0	; 0x8001c0 <N_Clock+0x13>
    1120:	82 30       	cpi	r24, 0x02	; 2
    1122:	31 f0       	breq	.+12     	; 0x1130 <Nixie_Loop+0xaa>
    1124:	83 30       	cpi	r24, 0x03	; 3
    1126:	89 f0       	breq	.+34     	; 0x114a <Nixie_Loop+0xc4>
    1128:	81 30       	cpi	r24, 0x01	; 1
    112a:	09 f0       	breq	.+2      	; 0x112e <Nixie_Loop+0xa8>
    112c:	44 c0       	rjmp	.+136    	; 0x11b6 <Nixie_Loop+0x130>
    112e:	0f c0       	rjmp	.+30     	; 0x114e <Nixie_Loop+0xc8>
    1130:	43 e0       	ldi	r20, 0x03	; 3
    1132:	50 e0       	ldi	r21, 0x00	; 0
    1134:	6a ec       	ldi	r22, 0xCA	; 202
    1136:	71 e0       	ldi	r23, 0x01	; 1
    1138:	87 ee       	ldi	r24, 0xE7	; 231
    113a:	91 e0       	ldi	r25, 0x01	; 1
    113c:	08 d6       	rcall	.+3088   	; 0x1d4e <memcmp>
    113e:	89 2b       	or	r24, r25
    1140:	d1 f5       	brne	.+116    	; 0x11b6 <Nixie_Loop+0x130>
    1142:	84 e0       	ldi	r24, 0x04	; 4
    1144:	80 93 b3 01 	sts	0x01B3, r24	; 0x8001b3 <N_Clock+0x6>
    1148:	36 c0       	rjmp	.+108    	; 0x11b6 <Nixie_Loop+0x130>
    114a:	cc 23       	and	r28, r28
    114c:	a1 f1       	breq	.+104    	; 0x11b6 <Nixie_Loop+0x130>
    114e:	40 91 c3 01 	lds	r20, 0x01C3	; 0x8001c3 <N_Clock+0x16>
    1152:	50 91 c4 01 	lds	r21, 0x01C4	; 0x8001c4 <N_Clock+0x17>
    1156:	20 91 c5 01 	lds	r18, 0x01C5	; 0x8001c5 <N_Clock+0x18>
    115a:	30 91 c6 01 	lds	r19, 0x01C6	; 0x8001c6 <N_Clock+0x19>
    115e:	80 91 cf 01 	lds	r24, 0x01CF	; 0x8001cf <N_Clock+0x22>
    1162:	90 91 d0 01 	lds	r25, 0x01D0	; 0x8001d0 <N_Clock+0x23>
    1166:	42 17       	cp	r20, r18
    1168:	53 07       	cpc	r21, r19
    116a:	78 f0       	brcs	.+30     	; 0x118a <Nixie_Loop+0x104>
    116c:	20 91 cd 01 	lds	r18, 0x01CD	; 0x8001cd <N_Clock+0x20>
    1170:	30 91 ce 01 	lds	r19, 0x01CE	; 0x8001ce <N_Clock+0x21>
    1174:	82 1b       	sub	r24, r18
    1176:	93 0b       	sbc	r25, r19
    1178:	90 93 d0 01 	sts	0x01D0, r25	; 0x8001d0 <N_Clock+0x23>
    117c:	80 93 cf 01 	sts	0x01CF, r24	; 0x8001cf <N_Clock+0x22>
    1180:	80 91 cf 01 	lds	r24, 0x01CF	; 0x8001cf <N_Clock+0x22>
    1184:	90 91 d0 01 	lds	r25, 0x01D0	; 0x8001d0 <N_Clock+0x23>
    1188:	da cf       	rjmp	.-76     	; 0x113e <Nixie_Loop+0xb8>
    118a:	89 2b       	or	r24, r25
    118c:	49 f0       	breq	.+18     	; 0x11a0 <Nixie_Loop+0x11a>
    118e:	98 d5       	rcall	.+2864   	; 0x1cc0 <Timer_Pulse_1s>
    1190:	31 e0       	ldi	r19, 0x01	; 1
    1192:	20 e0       	ldi	r18, 0x00	; 0
    1194:	81 11       	cpse	r24, r1
    1196:	01 c0       	rjmp	.+2      	; 0x119a <Nixie_Loop+0x114>
    1198:	30 e0       	ldi	r19, 0x00	; 0
    119a:	83 2f       	mov	r24, r19
    119c:	92 2f       	mov	r25, r18
    119e:	02 c0       	rjmp	.+4      	; 0x11a4 <Nixie_Loop+0x11e>
    11a0:	80 e0       	ldi	r24, 0x00	; 0
    11a2:	90 e0       	ldi	r25, 0x00	; 0
    11a4:	20 91 cf 01 	lds	r18, 0x01CF	; 0x8001cf <N_Clock+0x22>
    11a8:	30 91 d0 01 	lds	r19, 0x01D0	; 0x8001d0 <N_Clock+0x23>
    11ac:	a9 01       	movw	r20, r18
    11ae:	48 1b       	sub	r20, r24
    11b0:	59 0b       	sbc	r21, r25
    11b2:	ca 01       	movw	r24, r20
    11b4:	e1 cf       	rjmp	.-62     	; 0x1178 <Nixie_Loop+0xf2>
    11b6:	31 99       	sbic	0x06, 1	; 6
    11b8:	02 c0       	rjmp	.+4      	; 0x11be <Nixie_Loop+0x138>
    11ba:	32 9b       	sbis	0x06, 2	; 6
    11bc:	03 c0       	rjmp	.+6      	; 0x11c4 <Nixie_Loop+0x13e>
    11be:	88 ec       	ldi	r24, 0xC8	; 200
    11c0:	80 93 aa 01 	sts	0x01AA, r24	; 0x8001aa <Debounce>
    11c4:	80 91 aa 01 	lds	r24, 0x01AA	; 0x8001aa <Debounce>
    11c8:	81 11       	cpse	r24, r1
    11ca:	1b c0       	rjmp	.+54     	; 0x1202 <Nixie_Loop+0x17c>
    11cc:	80 91 b3 01 	lds	r24, 0x01B3	; 0x8001b3 <N_Clock+0x6>
    11d0:	82 30       	cpi	r24, 0x02	; 2
    11d2:	69 f0       	breq	.+26     	; 0x11ee <Nixie_Loop+0x168>
    11d4:	83 e0       	ldi	r24, 0x03	; 3
    11d6:	80 93 b3 01 	sts	0x01B3, r24	; 0x8001b3 <N_Clock+0x6>
    11da:	88 ec       	ldi	r24, 0xC8	; 200
    11dc:	80 93 aa 01 	sts	0x01AA, r24	; 0x8001aa <Debounce>
    11e0:	84 e6       	ldi	r24, 0x64	; 100
    11e2:	80 93 ab 01 	sts	0x01AB, r24	; 0x8001ab <Debounce+0x1>
    11e6:	81 e0       	ldi	r24, 0x01	; 1
    11e8:	80 93 b5 01 	sts	0x01B5, r24	; 0x8001b5 <N_Clock+0x8>
    11ec:	0a c0       	rjmp	.+20     	; 0x1202 <Nixie_Loop+0x17c>
    11ee:	80 93 b3 01 	sts	0x01B3, r24	; 0x8001b3 <N_Clock+0x6>
    11f2:	88 ec       	ldi	r24, 0xC8	; 200
    11f4:	80 93 aa 01 	sts	0x01AA, r24	; 0x8001aa <Debounce>
    11f8:	80 91 ba 01 	lds	r24, 0x01BA	; 0x8001ba <N_Clock+0xd>
    11fc:	8f 5f       	subi	r24, 0xFF	; 255
    11fe:	80 93 ba 01 	sts	0x01BA, r24	; 0x8001ba <N_Clock+0xd>
    1202:	80 91 b3 01 	lds	r24, 0x01B3	; 0x8001b3 <N_Clock+0x6>
    1206:	83 30       	cpi	r24, 0x03	; 3
    1208:	81 f1       	breq	.+96     	; 0x126a <Nixie_Loop+0x1e4>
    120a:	84 30       	cpi	r24, 0x04	; 4
    120c:	09 f4       	brne	.+2      	; 0x1210 <Nixie_Loop+0x18a>
    120e:	59 c1       	rjmp	.+690    	; 0x14c2 <Nixie_Loop+0x43c>
    1210:	82 30       	cpi	r24, 0x02	; 2
    1212:	09 f0       	breq	.+2      	; 0x1216 <Nixie_Loop+0x190>
    1214:	dd c1       	rjmp	.+954    	; 0x15d0 <Nixie_Loop+0x54a>
    1216:	10 92 b5 01 	sts	0x01B5, r1	; 0x8001b5 <N_Clock+0x8>
    121a:	10 92 b6 01 	sts	0x01B6, r1	; 0x8001b6 <N_Clock+0x9>
    121e:	90 91 b4 01 	lds	r25, 0x01B4	; 0x8001b4 <N_Clock+0x7>
    1222:	91 30       	cpi	r25, 0x01	; 1
    1224:	19 f0       	breq	.+6      	; 0x122c <Nixie_Loop+0x1a6>
    1226:	92 30       	cpi	r25, 0x02	; 2
    1228:	81 f0       	breq	.+32     	; 0x124a <Nixie_Loop+0x1c4>
    122a:	1c c0       	rjmp	.+56     	; 0x1264 <Nixie_Loop+0x1de>
    122c:	90 91 bb 01 	lds	r25, 0x01BB	; 0x8001bb <N_Clock+0xe>
    1230:	99 23       	and	r25, r25
    1232:	c1 f0       	breq	.+48     	; 0x1264 <Nixie_Loop+0x1de>
    1234:	90 91 be 01 	lds	r25, 0x01BE	; 0x8001be <N_Clock+0x11>
    1238:	99 23       	and	r25, r25
    123a:	a1 f0       	breq	.+40     	; 0x1264 <Nixie_Loop+0x1de>
    123c:	20 91 bd 01 	lds	r18, 0x01BD	; 0x8001bd <N_Clock+0x10>
    1240:	21 11       	cpse	r18, r1
    1242:	10 c0       	rjmp	.+32     	; 0x1264 <Nixie_Loop+0x1de>
    1244:	90 93 bf 01 	sts	0x01BF, r25	; 0x8001bf <N_Clock+0x12>
    1248:	0b c0       	rjmp	.+22     	; 0x1260 <Nixie_Loop+0x1da>
    124a:	80 91 bc 01 	lds	r24, 0x01BC	; 0x8001bc <N_Clock+0xf>
    124e:	88 23       	and	r24, r24
    1250:	49 f0       	breq	.+18     	; 0x1264 <Nixie_Loop+0x1de>
    1252:	90 91 bf 01 	lds	r25, 0x01BF	; 0x8001bf <N_Clock+0x12>
    1256:	91 11       	cpse	r25, r1
    1258:	05 c0       	rjmp	.+10     	; 0x1264 <Nixie_Loop+0x1de>
    125a:	80 93 bd 01 	sts	0x01BD, r24	; 0x8001bd <N_Clock+0x10>
    125e:	81 e0       	ldi	r24, 0x01	; 1
    1260:	80 93 b4 01 	sts	0x01B4, r24	; 0x8001b4 <N_Clock+0x7>
    1264:	80 91 b4 01 	lds	r24, 0x01B4	; 0x8001b4 <N_Clock+0x7>
    1268:	29 c2       	rjmp	.+1106   	; 0x16bc <Nixie_Loop+0x636>
    126a:	31 9b       	sbis	0x06, 1	; 6
    126c:	04 c0       	rjmp	.+8      	; 0x1276 <Nixie_Loop+0x1f0>
    126e:	32 9b       	sbis	0x06, 2	; 6
    1270:	02 c0       	rjmp	.+4      	; 0x1276 <Nixie_Loop+0x1f0>
    1272:	8a e0       	ldi	r24, 0x0A	; 10
    1274:	1d c0       	rjmp	.+58     	; 0x12b0 <Nixie_Loop+0x22a>
    1276:	86 b1       	in	r24, 0x06	; 6
    1278:	e0 91 b5 01 	lds	r30, 0x01B5	; 0x8001b5 <N_Clock+0x8>
    127c:	32 9b       	sbis	0x06, 2	; 6
    127e:	1b c0       	rjmp	.+54     	; 0x12b6 <Nixie_Loop+0x230>
    1280:	80 91 ab 01 	lds	r24, 0x01AB	; 0x8001ab <Debounce+0x1>
    1284:	81 11       	cpse	r24, r1
    1286:	17 c0       	rjmp	.+46     	; 0x12b6 <Nixie_Loop+0x230>
    1288:	81 e0       	ldi	r24, 0x01	; 1
    128a:	8e 0f       	add	r24, r30
    128c:	84 30       	cpi	r24, 0x04	; 4
    128e:	11 f4       	brne	.+4      	; 0x1294 <Nixie_Loop+0x20e>
    1290:	8b e0       	ldi	r24, 0x0B	; 11
    1292:	0b c0       	rjmp	.+22     	; 0x12aa <Nixie_Loop+0x224>
    1294:	8e 30       	cpi	r24, 0x0E	; 14
    1296:	11 f4       	brne	.+4      	; 0x129c <Nixie_Loop+0x216>
    1298:	84 e1       	ldi	r24, 0x14	; 20
    129a:	07 c0       	rjmp	.+14     	; 0x12aa <Nixie_Loop+0x224>
    129c:	87 31       	cpi	r24, 0x17	; 23
    129e:	11 f4       	brne	.+4      	; 0x12a4 <Nixie_Loop+0x21e>
    12a0:	8e e1       	ldi	r24, 0x1E	; 30
    12a2:	03 c0       	rjmp	.+6      	; 0x12aa <Nixie_Loop+0x224>
    12a4:	85 32       	cpi	r24, 0x25	; 37
    12a6:	08 f0       	brcs	.+2      	; 0x12aa <Nixie_Loop+0x224>
    12a8:	81 e0       	ldi	r24, 0x01	; 1
    12aa:	80 93 b5 01 	sts	0x01B5, r24	; 0x8001b5 <N_Clock+0x8>
    12ae:	8e e1       	ldi	r24, 0x1E	; 30
    12b0:	80 93 ab 01 	sts	0x01AB, r24	; 0x8001ab <Debounce+0x1>
    12b4:	9e c0       	rjmp	.+316    	; 0x13f2 <Nixie_Loop+0x36c>
    12b6:	31 9b       	sbis	0x06, 1	; 6
    12b8:	9c c0       	rjmp	.+312    	; 0x13f2 <Nixie_Loop+0x36c>
    12ba:	86 b1       	in	r24, 0x06	; 6
    12bc:	80 91 ab 01 	lds	r24, 0x01AB	; 0x8001ab <Debounce+0x1>
    12c0:	81 11       	cpse	r24, r1
    12c2:	97 c0       	rjmp	.+302    	; 0x13f2 <Nixie_Loop+0x36c>
    12c4:	f0 90 e7 01 	lds	r15, 0x01E7	; 0x8001e7 <RTC>
    12c8:	10 91 e8 01 	lds	r17, 0x01E8	; 0x8001e8 <RTC+0x1>
    12cc:	d0 91 e9 01 	lds	r29, 0x01E9	; 0x8001e9 <RTC+0x2>
    12d0:	c0 91 ea 01 	lds	r28, 0x01EA	; 0x8001ea <RTC+0x3>
    12d4:	00 91 eb 01 	lds	r16, 0x01EB	; 0x8001eb <RTC+0x4>
    12d8:	e0 90 ec 01 	lds	r14, 0x01EC	; 0x8001ec <RTC+0x5>
    12dc:	8e 2f       	mov	r24, r30
    12de:	90 e0       	ldi	r25, 0x00	; 0
    12e0:	fc 01       	movw	r30, r24
    12e2:	31 97       	sbiw	r30, 0x01	; 1
    12e4:	e4 32       	cpi	r30, 0x24	; 36
    12e6:	f1 05       	cpc	r31, r1
    12e8:	08 f0       	brcs	.+2      	; 0x12ec <Nixie_Loop+0x266>
    12ea:	7e c0       	rjmp	.+252    	; 0x13e8 <Nixie_Loop+0x362>
    12ec:	e6 5e       	subi	r30, 0xE6	; 230
    12ee:	ff 4f       	sbci	r31, 0xFF	; 255
    12f0:	09 94       	ijmp
    12f2:	f3 94       	inc	r15
    12f4:	5b e3       	ldi	r21, 0x3B	; 59
    12f6:	5f 15       	cp	r21, r15
    12f8:	08 f0       	brcs	.+2      	; 0x12fc <Nixie_Loop+0x276>
    12fa:	73 c0       	rjmp	.+230    	; 0x13e2 <Nixie_Loop+0x35c>
    12fc:	f1 2c       	mov	r15, r1
    12fe:	71 c0       	rjmp	.+226    	; 0x13e2 <Nixie_Loop+0x35c>
    1300:	1f 5f       	subi	r17, 0xFF	; 255
    1302:	1c 33       	cpi	r17, 0x3C	; 60
    1304:	08 f4       	brcc	.+2      	; 0x1308 <Nixie_Loop+0x282>
    1306:	6d c0       	rjmp	.+218    	; 0x13e2 <Nixie_Loop+0x35c>
    1308:	10 e0       	ldi	r17, 0x00	; 0
    130a:	6b c0       	rjmp	.+214    	; 0x13e2 <Nixie_Loop+0x35c>
    130c:	df 5f       	subi	r29, 0xFF	; 255
    130e:	d8 31       	cpi	r29, 0x18	; 24
    1310:	08 f4       	brcc	.+2      	; 0x1314 <Nixie_Loop+0x28e>
    1312:	67 c0       	rjmp	.+206    	; 0x13e2 <Nixie_Loop+0x35c>
    1314:	d0 e0       	ldi	r29, 0x00	; 0
    1316:	65 c0       	rjmp	.+202    	; 0x13e2 <Nixie_Loop+0x35c>
    1318:	e3 94       	inc	r14
    131a:	83 e6       	ldi	r24, 0x63	; 99
    131c:	8e 15       	cp	r24, r14
    131e:	08 f0       	brcs	.+2      	; 0x1322 <Nixie_Loop+0x29c>
    1320:	60 c0       	rjmp	.+192    	; 0x13e2 <Nixie_Loop+0x35c>
    1322:	e1 2c       	mov	r14, r1
    1324:	5e c0       	rjmp	.+188    	; 0x13e2 <Nixie_Loop+0x35c>
    1326:	0f 5f       	subi	r16, 0xFF	; 255
    1328:	0d 30       	cpi	r16, 0x0D	; 13
    132a:	08 f4       	brcc	.+2      	; 0x132e <Nixie_Loop+0x2a8>
    132c:	5a c0       	rjmp	.+180    	; 0x13e2 <Nixie_Loop+0x35c>
    132e:	01 e0       	ldi	r16, 0x01	; 1
    1330:	58 c0       	rjmp	.+176    	; 0x13e2 <Nixie_Loop+0x35c>
    1332:	cf 5f       	subi	r28, 0xFF	; 255
    1334:	02 30       	cpi	r16, 0x02	; 2
    1336:	09 f0       	breq	.+2      	; 0x133a <Nixie_Loop+0x2b4>
    1338:	b1 c1       	rjmp	.+866    	; 0x169c <Nixie_Loop+0x616>
    133a:	cd 31       	cpi	r28, 0x1D	; 29
    133c:	08 f4       	brcc	.+2      	; 0x1340 <Nixie_Loop+0x2ba>
    133e:	51 c0       	rjmp	.+162    	; 0x13e2 <Nixie_Loop+0x35c>
    1340:	08 d3       	rcall	.+1552   	; 0x1952 <RTC_not_leap>
    1342:	88 23       	and	r24, r24
    1344:	09 f4       	brne	.+2      	; 0x1348 <Nixie_Loop+0x2c2>
    1346:	a6 c1       	rjmp	.+844    	; 0x1694 <Nixie_Loop+0x60e>
    1348:	c1 e0       	ldi	r28, 0x01	; 1
    134a:	4b c0       	rjmp	.+150    	; 0x13e2 <Nixie_Loop+0x35c>
    134c:	80 91 bb 01 	lds	r24, 0x01BB	; 0x8001bb <N_Clock+0xe>
    1350:	88 23       	and	r24, r24
    1352:	19 f0       	breq	.+6      	; 0x135a <Nixie_Loop+0x2d4>
    1354:	10 92 bb 01 	sts	0x01BB, r1	; 0x8001bb <N_Clock+0xe>
    1358:	44 c0       	rjmp	.+136    	; 0x13e2 <Nixie_Loop+0x35c>
    135a:	81 e0       	ldi	r24, 0x01	; 1
    135c:	80 93 bb 01 	sts	0x01BB, r24	; 0x8001bb <N_Clock+0xe>
    1360:	40 c0       	rjmp	.+128    	; 0x13e2 <Nixie_Loop+0x35c>
    1362:	80 91 be 01 	lds	r24, 0x01BE	; 0x8001be <N_Clock+0x11>
    1366:	8f 5f       	subi	r24, 0xFF	; 255
    1368:	80 93 be 01 	sts	0x01BE, r24	; 0x8001be <N_Clock+0x11>
    136c:	3a c0       	rjmp	.+116    	; 0x13e2 <Nixie_Loop+0x35c>
    136e:	80 91 bc 01 	lds	r24, 0x01BC	; 0x8001bc <N_Clock+0xf>
    1372:	8f 5f       	subi	r24, 0xFF	; 255
    1374:	80 93 bc 01 	sts	0x01BC, r24	; 0x8001bc <N_Clock+0xf>
    1378:	34 c0       	rjmp	.+104    	; 0x13e2 <Nixie_Loop+0x35c>
    137a:	80 91 c0 01 	lds	r24, 0x01C0	; 0x8001c0 <N_Clock+0x13>
    137e:	8f 5f       	subi	r24, 0xFF	; 255
    1380:	84 30       	cpi	r24, 0x04	; 4
    1382:	18 f4       	brcc	.+6      	; 0x138a <Nixie_Loop+0x304>
    1384:	80 93 c0 01 	sts	0x01C0, r24	; 0x8001c0 <N_Clock+0x13>
    1388:	2c c0       	rjmp	.+88     	; 0x13e2 <Nixie_Loop+0x35c>
    138a:	10 92 c0 01 	sts	0x01C0, r1	; 0x8001c0 <N_Clock+0x13>
    138e:	29 c0       	rjmp	.+82     	; 0x13e2 <Nixie_Loop+0x35c>
    1390:	80 91 c5 01 	lds	r24, 0x01C5	; 0x8001c5 <N_Clock+0x18>
    1394:	90 91 c6 01 	lds	r25, 0x01C6	; 0x8001c6 <N_Clock+0x19>
    1398:	90 93 c4 01 	sts	0x01C4, r25	; 0x8001c4 <N_Clock+0x17>
    139c:	80 93 c3 01 	sts	0x01C3, r24	; 0x8001c3 <N_Clock+0x16>
    13a0:	20 c0       	rjmp	.+64     	; 0x13e2 <Nixie_Loop+0x35c>
    13a2:	80 91 c5 01 	lds	r24, 0x01C5	; 0x8001c5 <N_Clock+0x18>
    13a6:	90 91 c6 01 	lds	r25, 0x01C6	; 0x8001c6 <N_Clock+0x19>
    13aa:	90 93 c2 01 	sts	0x01C2, r25	; 0x8001c2 <N_Clock+0x15>
    13ae:	80 93 c1 01 	sts	0x01C1, r24	; 0x8001c1 <N_Clock+0x14>
    13b2:	17 c0       	rjmp	.+46     	; 0x13e2 <Nixie_Loop+0x35c>
    13b4:	80 91 cb 01 	lds	r24, 0x01CB	; 0x8001cb <N_Clock+0x1e>
    13b8:	8f 5f       	subi	r24, 0xFF	; 255
    13ba:	80 93 cb 01 	sts	0x01CB, r24	; 0x8001cb <N_Clock+0x1e>
    13be:	11 c0       	rjmp	.+34     	; 0x13e2 <Nixie_Loop+0x35c>
    13c0:	80 91 cc 01 	lds	r24, 0x01CC	; 0x8001cc <N_Clock+0x1f>
    13c4:	8f 5f       	subi	r24, 0xFF	; 255
    13c6:	80 93 cc 01 	sts	0x01CC, r24	; 0x8001cc <N_Clock+0x1f>
    13ca:	0b c0       	rjmp	.+22     	; 0x13e2 <Nixie_Loop+0x35c>
    13cc:	80 91 c8 01 	lds	r24, 0x01C8	; 0x8001c8 <N_Clock+0x1b>
    13d0:	8f 5f       	subi	r24, 0xFF	; 255
    13d2:	80 93 c8 01 	sts	0x01C8, r24	; 0x8001c8 <N_Clock+0x1b>
    13d6:	05 c0       	rjmp	.+10     	; 0x13e2 <Nixie_Loop+0x35c>
    13d8:	80 91 c9 01 	lds	r24, 0x01C9	; 0x8001c9 <N_Clock+0x1c>
    13dc:	8f 5f       	subi	r24, 0xFF	; 255
    13de:	80 93 c9 01 	sts	0x01C9, r24	; 0x8001c9 <N_Clock+0x1c>
    13e2:	8e e1       	ldi	r24, 0x1E	; 30
    13e4:	80 93 ab 01 	sts	0x01AB, r24	; 0x8001ab <Debounce+0x1>
    13e8:	2c 2f       	mov	r18, r28
    13ea:	4d 2f       	mov	r20, r29
    13ec:	61 2f       	mov	r22, r17
    13ee:	8f 2d       	mov	r24, r15
    13f0:	cc d3       	rcall	.+1944   	; 0x1b8a <RTC_Set_DateTime>
    13f2:	20 91 b5 01 	lds	r18, 0x01B5	; 0x8001b5 <N_Clock+0x8>
    13f6:	82 2f       	mov	r24, r18
    13f8:	90 e0       	ldi	r25, 0x00	; 0
    13fa:	fc 01       	movw	r30, r24
    13fc:	74 97       	sbiw	r30, 0x14	; 20
    13fe:	e1 31       	cpi	r30, 0x11	; 17
    1400:	f1 05       	cpc	r31, r1
    1402:	08 f0       	brcs	.+2      	; 0x1406 <Nixie_Loop+0x380>
    1404:	54 c0       	rjmp	.+168    	; 0x14ae <Nixie_Loop+0x428>
    1406:	e2 5c       	subi	r30, 0xC2	; 194
    1408:	ff 4f       	sbci	r31, 0xFF	; 255
    140a:	09 94       	ijmp
    140c:	10 92 b1 01 	sts	0x01B1, r1	; 0x8001b1 <N_Clock+0x4>
    1410:	80 91 bb 01 	lds	r24, 0x01BB	; 0x8001bb <N_Clock+0xe>
    1414:	27 c0       	rjmp	.+78     	; 0x1464 <Nixie_Loop+0x3de>
    1416:	80 91 be 01 	lds	r24, 0x01BE	; 0x8001be <N_Clock+0x11>
    141a:	02 c0       	rjmp	.+4      	; 0x1420 <Nixie_Loop+0x39a>
    141c:	80 91 bc 01 	lds	r24, 0x01BC	; 0x8001bc <N_Clock+0xf>
    1420:	64 e6       	ldi	r22, 0x64	; 100
    1422:	62 d4       	rcall	.+2244   	; 0x1ce8 <__udivmodqi4>
    1424:	80 93 b1 01 	sts	0x01B1, r24	; 0x8001b1 <N_Clock+0x4>
    1428:	90 93 b2 01 	sts	0x01B2, r25	; 0x8001b2 <N_Clock+0x5>
    142c:	46 c1       	rjmp	.+652    	; 0x16ba <Nixie_Loop+0x634>
    142e:	10 92 b1 01 	sts	0x01B1, r1	; 0x8001b1 <N_Clock+0x4>
    1432:	80 91 c0 01 	lds	r24, 0x01C0	; 0x8001c0 <N_Clock+0x13>
    1436:	16 c0       	rjmp	.+44     	; 0x1464 <Nixie_Loop+0x3de>
    1438:	80 91 c5 01 	lds	r24, 0x01C5	; 0x8001c5 <N_Clock+0x18>
    143c:	90 91 c6 01 	lds	r25, 0x01C6	; 0x8001c6 <N_Clock+0x19>
    1440:	64 e6       	ldi	r22, 0x64	; 100
    1442:	70 e0       	ldi	r23, 0x00	; 0
    1444:	5d d4       	rcall	.+2234   	; 0x1d00 <__udivmodhi4>
    1446:	60 93 b1 01 	sts	0x01B1, r22	; 0x8001b1 <N_Clock+0x4>
    144a:	80 93 b2 01 	sts	0x01B2, r24	; 0x8001b2 <N_Clock+0x5>
    144e:	33 c0       	rjmp	.+102    	; 0x14b6 <Nixie_Loop+0x430>
    1450:	80 91 cc 01 	lds	r24, 0x01CC	; 0x8001cc <N_Clock+0x1f>
    1454:	80 93 b1 01 	sts	0x01B1, r24	; 0x8001b1 <N_Clock+0x4>
    1458:	80 91 e7 01 	lds	r24, 0x01E7	; 0x8001e7 <RTC>
    145c:	80 ff       	sbrs	r24, 0
    145e:	0d c0       	rjmp	.+26     	; 0x147a <Nixie_Loop+0x3f4>
    1460:	80 91 cb 01 	lds	r24, 0x01CB	; 0x8001cb <N_Clock+0x1e>
    1464:	80 93 b2 01 	sts	0x01B2, r24	; 0x8001b2 <N_Clock+0x5>
    1468:	28 c1       	rjmp	.+592    	; 0x16ba <Nixie_Loop+0x634>
    146a:	80 91 c9 01 	lds	r24, 0x01C9	; 0x8001c9 <N_Clock+0x1c>
    146e:	80 93 b1 01 	sts	0x01B1, r24	; 0x8001b1 <N_Clock+0x4>
    1472:	80 91 e7 01 	lds	r24, 0x01E7	; 0x8001e7 <RTC>
    1476:	80 fd       	sbrc	r24, 0
    1478:	15 c0       	rjmp	.+42     	; 0x14a4 <Nixie_Loop+0x41e>
    147a:	8a ea       	ldi	r24, 0xAA	; 170
    147c:	f3 cf       	rjmp	.-26     	; 0x1464 <Nixie_Loop+0x3de>
    147e:	80 91 e7 01 	lds	r24, 0x01E7	; 0x8001e7 <RTC>
    1482:	80 ff       	sbrs	r24, 0
    1484:	03 c0       	rjmp	.+6      	; 0x148c <Nixie_Loop+0x406>
    1486:	80 91 cc 01 	lds	r24, 0x01CC	; 0x8001cc <N_Clock+0x1f>
    148a:	01 c0       	rjmp	.+2      	; 0x148e <Nixie_Loop+0x408>
    148c:	8a ea       	ldi	r24, 0xAA	; 170
    148e:	80 93 b1 01 	sts	0x01B1, r24	; 0x8001b1 <N_Clock+0x4>
    1492:	e6 cf       	rjmp	.-52     	; 0x1460 <Nixie_Loop+0x3da>
    1494:	80 91 e7 01 	lds	r24, 0x01E7	; 0x8001e7 <RTC>
    1498:	80 ff       	sbrs	r24, 0
    149a:	07 c0       	rjmp	.+14     	; 0x14aa <Nixie_Loop+0x424>
    149c:	80 91 c9 01 	lds	r24, 0x01C9	; 0x8001c9 <N_Clock+0x1c>
    14a0:	80 93 b1 01 	sts	0x01B1, r24	; 0x8001b1 <N_Clock+0x4>
    14a4:	80 91 c8 01 	lds	r24, 0x01C8	; 0x8001c8 <N_Clock+0x1b>
    14a8:	dd cf       	rjmp	.-70     	; 0x1464 <Nixie_Loop+0x3de>
    14aa:	8a ea       	ldi	r24, 0xAA	; 170
    14ac:	f9 cf       	rjmp	.-14     	; 0x14a0 <Nixie_Loop+0x41a>
    14ae:	24 30       	cpi	r18, 0x04	; 4
    14b0:	10 f4       	brcc	.+4      	; 0x14b6 <Nixie_Loop+0x430>
    14b2:	81 e0       	ldi	r24, 0x01	; 1
    14b4:	03 c1       	rjmp	.+518    	; 0x16bc <Nixie_Loop+0x636>
    14b6:	2a 50       	subi	r18, 0x0A	; 10
    14b8:	2a 30       	cpi	r18, 0x0A	; 10
    14ba:	08 f0       	brcs	.+2      	; 0x14be <Nixie_Loop+0x438>
    14bc:	fe c0       	rjmp	.+508    	; 0x16ba <Nixie_Loop+0x634>
    14be:	82 e0       	ldi	r24, 0x02	; 2
    14c0:	fd c0       	rjmp	.+506    	; 0x16bc <Nixie_Loop+0x636>
    14c2:	80 e0       	ldi	r24, 0x00	; 0
    14c4:	05 dd       	rcall	.-1526   	; 0xed0 <Nixie_Update>
    14c6:	80 91 cf 01 	lds	r24, 0x01CF	; 0x8001cf <N_Clock+0x22>
    14ca:	90 91 d0 01 	lds	r25, 0x01D0	; 0x8001d0 <N_Clock+0x23>
    14ce:	00 97       	sbiw	r24, 0x00	; 0
    14d0:	21 f0       	breq	.+8      	; 0x14da <Nixie_Loop+0x454>
    14d2:	31 99       	sbic	0x06, 1	; 6
    14d4:	02 c0       	rjmp	.+4      	; 0x14da <Nixie_Loop+0x454>
    14d6:	32 9b       	sbis	0x06, 2	; 6
    14d8:	03 c0       	rjmp	.+6      	; 0x14e0 <Nixie_Loop+0x45a>
    14da:	21 e0       	ldi	r18, 0x01	; 1
    14dc:	20 93 b4 01 	sts	0x01B4, r18	; 0x8001b4 <N_Clock+0x7>
    14e0:	d0 91 c0 01 	lds	r29, 0x01C0	; 0x8001c0 <N_Clock+0x13>
    14e4:	d1 30       	cpi	r29, 0x01	; 1
    14e6:	41 f0       	breq	.+16     	; 0x14f8 <Nixie_Loop+0x472>
    14e8:	28 f0       	brcs	.+10     	; 0x14f4 <Nixie_Loop+0x46e>
    14ea:	d2 30       	cpi	r29, 0x02	; 2
    14ec:	79 f1       	breq	.+94     	; 0x154c <Nixie_Loop+0x4c6>
    14ee:	d3 30       	cpi	r29, 0x03	; 3
    14f0:	c9 f1       	breq	.+114    	; 0x1564 <Nixie_Loop+0x4de>
    14f2:	6e c0       	rjmp	.+220    	; 0x15d0 <Nixie_Loop+0x54a>
    14f4:	82 e0       	ldi	r24, 0x02	; 2
    14f6:	6a c0       	rjmp	.+212    	; 0x15cc <Nixie_Loop+0x546>
    14f8:	40 91 c3 01 	lds	r20, 0x01C3	; 0x8001c3 <N_Clock+0x16>
    14fc:	50 91 c4 01 	lds	r21, 0x01C4	; 0x8001c4 <N_Clock+0x17>
    1500:	20 91 c5 01 	lds	r18, 0x01C5	; 0x8001c5 <N_Clock+0x18>
    1504:	30 91 c6 01 	lds	r19, 0x01C6	; 0x8001c6 <N_Clock+0x19>
    1508:	24 17       	cp	r18, r20
    150a:	35 07       	cpc	r19, r21
    150c:	b0 f4       	brcc	.+44     	; 0x153a <Nixie_Loop+0x4b4>
    150e:	89 2b       	or	r24, r25
    1510:	49 f0       	breq	.+18     	; 0x1524 <Nixie_Loop+0x49e>
    1512:	d6 d3       	rcall	.+1964   	; 0x1cc0 <Timer_Pulse_1s>
    1514:	31 e0       	ldi	r19, 0x01	; 1
    1516:	20 e0       	ldi	r18, 0x00	; 0
    1518:	81 11       	cpse	r24, r1
    151a:	01 c0       	rjmp	.+2      	; 0x151e <Nixie_Loop+0x498>
    151c:	30 e0       	ldi	r19, 0x00	; 0
    151e:	83 2f       	mov	r24, r19
    1520:	92 2f       	mov	r25, r18
    1522:	02 c0       	rjmp	.+4      	; 0x1528 <Nixie_Loop+0x4a2>
    1524:	80 e0       	ldi	r24, 0x00	; 0
    1526:	90 e0       	ldi	r25, 0x00	; 0
    1528:	20 91 cf 01 	lds	r18, 0x01CF	; 0x8001cf <N_Clock+0x22>
    152c:	30 91 d0 01 	lds	r19, 0x01D0	; 0x8001d0 <N_Clock+0x23>
    1530:	a9 01       	movw	r20, r18
    1532:	48 1b       	sub	r20, r24
    1534:	59 0b       	sbc	r21, r25
    1536:	ca 01       	movw	r24, r20
    1538:	04 c0       	rjmp	.+8      	; 0x1542 <Nixie_Loop+0x4bc>
    153a:	80 91 cd 01 	lds	r24, 0x01CD	; 0x8001cd <N_Clock+0x20>
    153e:	90 91 ce 01 	lds	r25, 0x01CE	; 0x8001ce <N_Clock+0x21>
    1542:	90 93 d0 01 	sts	0x01D0, r25	; 0x8001d0 <N_Clock+0x23>
    1546:	80 93 cf 01 	sts	0x01CF, r24	; 0x8001cf <N_Clock+0x22>
    154a:	42 c0       	rjmp	.+132    	; 0x15d0 <Nixie_Loop+0x54a>
    154c:	43 e0       	ldi	r20, 0x03	; 3
    154e:	50 e0       	ldi	r21, 0x00	; 0
    1550:	67 ec       	ldi	r22, 0xC7	; 199
    1552:	71 e0       	ldi	r23, 0x01	; 1
    1554:	87 ee       	ldi	r24, 0xE7	; 231
    1556:	91 e0       	ldi	r25, 0x01	; 1
    1558:	fa d3       	rcall	.+2036   	; 0x1d4e <memcmp>
    155a:	89 2b       	or	r24, r25
    155c:	c9 f5       	brne	.+114    	; 0x15d0 <Nixie_Loop+0x54a>
    155e:	d0 93 b3 01 	sts	0x01B3, r29	; 0x8001b3 <N_Clock+0x6>
    1562:	36 c0       	rjmp	.+108    	; 0x15d0 <Nixie_Loop+0x54a>
    1564:	c1 11       	cpse	r28, r1
    1566:	34 c0       	rjmp	.+104    	; 0x15d0 <Nixie_Loop+0x54a>
    1568:	40 91 c1 01 	lds	r20, 0x01C1	; 0x8001c1 <N_Clock+0x14>
    156c:	50 91 c2 01 	lds	r21, 0x01C2	; 0x8001c2 <N_Clock+0x15>
    1570:	20 91 c5 01 	lds	r18, 0x01C5	; 0x8001c5 <N_Clock+0x18>
    1574:	30 91 c6 01 	lds	r19, 0x01C6	; 0x8001c6 <N_Clock+0x19>
    1578:	24 17       	cp	r18, r20
    157a:	35 07       	cpc	r19, r21
    157c:	b0 f4       	brcc	.+44     	; 0x15aa <Nixie_Loop+0x524>
    157e:	89 2b       	or	r24, r25
    1580:	49 f0       	breq	.+18     	; 0x1594 <Nixie_Loop+0x50e>
    1582:	9e d3       	rcall	.+1852   	; 0x1cc0 <Timer_Pulse_1s>
    1584:	31 e0       	ldi	r19, 0x01	; 1
    1586:	20 e0       	ldi	r18, 0x00	; 0
    1588:	81 11       	cpse	r24, r1
    158a:	01 c0       	rjmp	.+2      	; 0x158e <Nixie_Loop+0x508>
    158c:	30 e0       	ldi	r19, 0x00	; 0
    158e:	83 2f       	mov	r24, r19
    1590:	92 2f       	mov	r25, r18
    1592:	02 c0       	rjmp	.+4      	; 0x1598 <Nixie_Loop+0x512>
    1594:	80 e0       	ldi	r24, 0x00	; 0
    1596:	90 e0       	ldi	r25, 0x00	; 0
    1598:	20 91 cf 01 	lds	r18, 0x01CF	; 0x8001cf <N_Clock+0x22>
    159c:	30 91 d0 01 	lds	r19, 0x01D0	; 0x8001d0 <N_Clock+0x23>
    15a0:	a9 01       	movw	r20, r18
    15a2:	48 1b       	sub	r20, r24
    15a4:	59 0b       	sbc	r21, r25
    15a6:	ca 01       	movw	r24, r20
    15a8:	06 c0       	rjmp	.+12     	; 0x15b6 <Nixie_Loop+0x530>
    15aa:	20 91 cd 01 	lds	r18, 0x01CD	; 0x8001cd <N_Clock+0x20>
    15ae:	30 91 ce 01 	lds	r19, 0x01CE	; 0x8001ce <N_Clock+0x21>
    15b2:	82 1b       	sub	r24, r18
    15b4:	93 0b       	sbc	r25, r19
    15b6:	90 93 d0 01 	sts	0x01D0, r25	; 0x8001d0 <N_Clock+0x23>
    15ba:	80 93 cf 01 	sts	0x01CF, r24	; 0x8001cf <N_Clock+0x22>
    15be:	80 91 cf 01 	lds	r24, 0x01CF	; 0x8001cf <N_Clock+0x22>
    15c2:	90 91 d0 01 	lds	r25, 0x01D0	; 0x8001d0 <N_Clock+0x23>
    15c6:	89 2b       	or	r24, r25
    15c8:	19 f4       	brne	.+6      	; 0x15d0 <Nixie_Loop+0x54a>
    15ca:	84 e0       	ldi	r24, 0x04	; 4
    15cc:	80 93 b3 01 	sts	0x01B3, r24	; 0x8001b3 <N_Clock+0x6>
    15d0:	71 d3       	rcall	.+1762   	; 0x1cb4 <Timer_Pulse_10ms>
    15d2:	20 91 aa 01 	lds	r18, 0x01AA	; 0x8001aa <Debounce>
    15d6:	22 23       	and	r18, r18
    15d8:	19 f0       	breq	.+6      	; 0x15e0 <Nixie_Loop+0x55a>
    15da:	91 e0       	ldi	r25, 0x01	; 1
    15dc:	81 11       	cpse	r24, r1
    15de:	01 c0       	rjmp	.+2      	; 0x15e2 <Nixie_Loop+0x55c>
    15e0:	90 e0       	ldi	r25, 0x00	; 0
    15e2:	29 1b       	sub	r18, r25
    15e4:	20 93 aa 01 	sts	0x01AA, r18	; 0x8001aa <Debounce>
    15e8:	20 91 ab 01 	lds	r18, 0x01AB	; 0x8001ab <Debounce+0x1>
    15ec:	22 23       	and	r18, r18
    15ee:	19 f0       	breq	.+6      	; 0x15f6 <Nixie_Loop+0x570>
    15f0:	91 e0       	ldi	r25, 0x01	; 1
    15f2:	81 11       	cpse	r24, r1
    15f4:	01 c0       	rjmp	.+2      	; 0x15f8 <Nixie_Loop+0x572>
    15f6:	90 e0       	ldi	r25, 0x00	; 0
    15f8:	29 1b       	sub	r18, r25
    15fa:	20 93 ab 01 	sts	0x01AB, r18	; 0x8001ab <Debounce+0x1>
    15fe:	20 91 ac 01 	lds	r18, 0x01AC	; 0x8001ac <Debounce+0x2>
    1602:	22 23       	and	r18, r18
    1604:	31 f0       	breq	.+12     	; 0x1612 <Nixie_Loop+0x58c>
    1606:	91 e0       	ldi	r25, 0x01	; 1
    1608:	81 11       	cpse	r24, r1
    160a:	01 c0       	rjmp	.+2      	; 0x160e <Nixie_Loop+0x588>
    160c:	90 e0       	ldi	r25, 0x00	; 0
    160e:	89 2f       	mov	r24, r25
    1610:	01 c0       	rjmp	.+2      	; 0x1614 <Nixie_Loop+0x58e>
    1612:	80 e0       	ldi	r24, 0x00	; 0
    1614:	28 1b       	sub	r18, r24
    1616:	20 93 ac 01 	sts	0x01AC, r18	; 0x8001ac <Debounce+0x2>
    161a:	52 d3       	rcall	.+1700   	; 0x1cc0 <Timer_Pulse_1s>
    161c:	20 91 bf 01 	lds	r18, 0x01BF	; 0x8001bf <N_Clock+0x12>
    1620:	22 23       	and	r18, r18
    1622:	19 f0       	breq	.+6      	; 0x162a <Nixie_Loop+0x5a4>
    1624:	91 e0       	ldi	r25, 0x01	; 1
    1626:	81 11       	cpse	r24, r1
    1628:	01 c0       	rjmp	.+2      	; 0x162c <Nixie_Loop+0x5a6>
    162a:	90 e0       	ldi	r25, 0x00	; 0
    162c:	29 1b       	sub	r18, r25
    162e:	20 93 bf 01 	sts	0x01BF, r18	; 0x8001bf <N_Clock+0x12>
    1632:	20 91 bd 01 	lds	r18, 0x01BD	; 0x8001bd <N_Clock+0x10>
    1636:	22 23       	and	r18, r18
    1638:	31 f0       	breq	.+12     	; 0x1646 <Nixie_Loop+0x5c0>
    163a:	91 e0       	ldi	r25, 0x01	; 1
    163c:	81 11       	cpse	r24, r1
    163e:	01 c0       	rjmp	.+2      	; 0x1642 <Nixie_Loop+0x5bc>
    1640:	90 e0       	ldi	r25, 0x00	; 0
    1642:	89 2f       	mov	r24, r25
    1644:	01 c0       	rjmp	.+2      	; 0x1648 <Nixie_Loop+0x5c2>
    1646:	80 e0       	ldi	r24, 0x00	; 0
    1648:	28 1b       	sub	r18, r24
    164a:	20 93 bd 01 	sts	0x01BD, r18	; 0x8001bd <N_Clock+0x10>
    164e:	2f d3       	rcall	.+1630   	; 0x1cae <Timer_Pulse_1ms>
    1650:	90 91 b7 01 	lds	r25, 0x01B7	; 0x8001b7 <N_Clock+0xa>
    1654:	99 23       	and	r25, r25
    1656:	19 f0       	breq	.+6      	; 0x165e <Nixie_Loop+0x5d8>
    1658:	21 e0       	ldi	r18, 0x01	; 1
    165a:	81 11       	cpse	r24, r1
    165c:	01 c0       	rjmp	.+2      	; 0x1660 <Nixie_Loop+0x5da>
    165e:	20 e0       	ldi	r18, 0x00	; 0
    1660:	92 1b       	sub	r25, r18
    1662:	90 93 b7 01 	sts	0x01B7, r25	; 0x8001b7 <N_Clock+0xa>
    1666:	20 91 b8 01 	lds	r18, 0x01B8	; 0x8001b8 <N_Clock+0xb>
    166a:	22 23       	and	r18, r18
    166c:	41 f0       	breq	.+16     	; 0x167e <Nixie_Loop+0x5f8>
    166e:	91 11       	cpse	r25, r1
    1670:	06 c0       	rjmp	.+12     	; 0x167e <Nixie_Loop+0x5f8>
    1672:	91 e0       	ldi	r25, 0x01	; 1
    1674:	81 11       	cpse	r24, r1
    1676:	01 c0       	rjmp	.+2      	; 0x167a <Nixie_Loop+0x5f4>
    1678:	90 e0       	ldi	r25, 0x00	; 0
    167a:	89 2f       	mov	r24, r25
    167c:	01 c0       	rjmp	.+2      	; 0x1680 <Nixie_Loop+0x5fa>
    167e:	80 e0       	ldi	r24, 0x00	; 0
    1680:	28 1b       	sub	r18, r24
    1682:	20 93 b8 01 	sts	0x01B8, r18	; 0x8001b8 <N_Clock+0xb>
    1686:	df 91       	pop	r29
    1688:	cf 91       	pop	r28
    168a:	1f 91       	pop	r17
    168c:	0f 91       	pop	r16
    168e:	ff 90       	pop	r15
    1690:	ef 90       	pop	r14
    1692:	08 95       	ret
    1694:	ce 31       	cpi	r28, 0x1E	; 30
    1696:	08 f0       	brcs	.+2      	; 0x169a <Nixie_Loop+0x614>
    1698:	57 ce       	rjmp	.-850    	; 0x1348 <Nixie_Loop+0x2c2>
    169a:	a3 ce       	rjmp	.-698    	; 0x13e2 <Nixie_Loop+0x35c>
    169c:	cf 31       	cpi	r28, 0x1F	; 31
    169e:	08 f4       	brcc	.+2      	; 0x16a2 <Nixie_Loop+0x61c>
    16a0:	a0 ce       	rjmp	.-704    	; 0x13e2 <Nixie_Loop+0x35c>
    16a2:	80 2f       	mov	r24, r16
    16a4:	8d 7f       	andi	r24, 0xFD	; 253
    16a6:	84 30       	cpi	r24, 0x04	; 4
    16a8:	09 f4       	brne	.+2      	; 0x16ac <Nixie_Loop+0x626>
    16aa:	4e ce       	rjmp	.-868    	; 0x1348 <Nixie_Loop+0x2c2>
    16ac:	89 30       	cpi	r24, 0x09	; 9
    16ae:	09 f4       	brne	.+2      	; 0x16b2 <Nixie_Loop+0x62c>
    16b0:	4b ce       	rjmp	.-874    	; 0x1348 <Nixie_Loop+0x2c2>
    16b2:	cf 31       	cpi	r28, 0x1F	; 31
    16b4:	09 f0       	breq	.+2      	; 0x16b8 <Nixie_Loop+0x632>
    16b6:	48 ce       	rjmp	.-880    	; 0x1348 <Nixie_Loop+0x2c2>
    16b8:	94 ce       	rjmp	.-728    	; 0x13e2 <Nixie_Loop+0x35c>
    16ba:	83 e0       	ldi	r24, 0x03	; 3
    16bc:	09 dc       	rcall	.-2030   	; 0xed0 <Nixie_Update>
    16be:	88 cf       	rjmp	.-240    	; 0x15d0 <Nixie_Loop+0x54a>

000016c0 <Setting_Init>:
    16c0:	ed ea       	ldi	r30, 0xAD	; 173
    16c2:	f1 e0       	ldi	r31, 0x01	; 1
    16c4:	14 86       	std	Z+12, r1	; 0x0c
    16c6:	82 e1       	ldi	r24, 0x12	; 18
    16c8:	90 e0       	ldi	r25, 0x00	; 0
    16ca:	95 a3       	std	Z+37, r25	; 0x25
    16cc:	84 a3       	std	Z+36, r24	; 0x24
    16ce:	08 95       	ret

000016d0 <Nixie_Init>:
    16d0:	cf 93       	push	r28
    16d2:	df 93       	push	r29
    16d4:	8a b1       	in	r24, 0x0a	; 10
    16d6:	8f ef       	ldi	r24, 0xFF	; 255
    16d8:	8a b9       	out	0x0a, r24	; 10
    16da:	84 b1       	in	r24, 0x04	; 4
    16dc:	87 61       	ori	r24, 0x17	; 23
    16de:	84 b9       	out	0x04, r24	; 4
    16e0:	87 b1       	in	r24, 0x07	; 7
    16e2:	89 7f       	andi	r24, 0xF9	; 249
    16e4:	87 b9       	out	0x07, r24	; 7
    16e6:	cd ea       	ldi	r28, 0xAD	; 173
    16e8:	d1 e0       	ldi	r29, 0x01	; 1
    16ea:	18 82       	st	Y, r1
    16ec:	80 e0       	ldi	r24, 0x00	; 0
    16ee:	0d d1       	rcall	.+538    	; 0x190a <Power_Mode>
    16f0:	81 e0       	ldi	r24, 0x01	; 1
    16f2:	8e 83       	std	Y+6, r24	; 0x06
    16f4:	83 e0       	ldi	r24, 0x03	; 3
    16f6:	88 af       	std	Y+56, r24	; 0x38
    16f8:	85 e0       	ldi	r24, 0x05	; 5
    16fa:	89 af       	std	Y+57, r24	; 0x39
    16fc:	c5 d0       	rcall	.+394    	; 0x1888 <Power_Init>
    16fe:	df 91       	pop	r29
    1700:	cf 91       	pop	r28
    1702:	de cf       	rjmp	.-68     	; 0x16c0 <Setting_Init>

00001704 <Setting_Loop>:
    1704:	80 91 b9 01 	lds	r24, 0x01B9	; 0x8001b9 <N_Clock+0xc>
    1708:	81 30       	cpi	r24, 0x01	; 1
    170a:	81 f0       	breq	.+32     	; 0x172c <Setting_Loop+0x28>
    170c:	20 f0       	brcs	.+8      	; 0x1716 <Setting_Loop+0x12>
    170e:	82 30       	cpi	r24, 0x02	; 2
    1710:	09 f4       	brne	.+2      	; 0x1714 <Setting_Loop+0x10>
    1712:	53 c0       	rjmp	.+166    	; 0x17ba <Setting_Loop+0xb6>
    1714:	08 95       	ret
    1716:	60 91 d1 01 	lds	r22, 0x01D1	; 0x8001d1 <N_Clock+0x24>
    171a:	70 91 d2 01 	lds	r23, 0x01D2	; 0x8001d2 <N_Clock+0x25>
    171e:	43 ed       	ldi	r20, 0xD3	; 211
    1720:	51 e0       	ldi	r21, 0x01	; 1
    1722:	80 e0       	ldi	r24, 0x00	; 0
    1724:	90 e0       	ldi	r25, 0x00	; 0
    1726:	8a d9       	rcall	.-3308   	; 0xa3c <EEPROM_Read>
    1728:	81 e0       	ldi	r24, 0x01	; 1
    172a:	44 c0       	rjmp	.+136    	; 0x17b4 <Setting_Loop+0xb0>
    172c:	70 d9       	rcall	.-3360   	; 0xa0e <EEPROM_Status>
    172e:	81 11       	cpse	r24, r1
    1730:	97 c0       	rjmp	.+302    	; 0x1860 <Setting_Loop+0x15c>
    1732:	80 91 d3 01 	lds	r24, 0x01D3	; 0x8001d3 <N_Clock+0x26>
    1736:	80 93 bb 01 	sts	0x01BB, r24	; 0x8001bb <N_Clock+0xe>
    173a:	80 91 d5 01 	lds	r24, 0x01D5	; 0x8001d5 <N_Clock+0x28>
    173e:	80 93 be 01 	sts	0x01BE, r24	; 0x8001be <N_Clock+0x11>
    1742:	80 91 d4 01 	lds	r24, 0x01D4	; 0x8001d4 <N_Clock+0x27>
    1746:	80 93 bc 01 	sts	0x01BC, r24	; 0x8001bc <N_Clock+0xf>
    174a:	80 91 d6 01 	lds	r24, 0x01D6	; 0x8001d6 <N_Clock+0x29>
    174e:	80 93 c0 01 	sts	0x01C0, r24	; 0x8001c0 <N_Clock+0x13>
    1752:	80 91 d7 01 	lds	r24, 0x01D7	; 0x8001d7 <N_Clock+0x2a>
    1756:	90 91 d8 01 	lds	r25, 0x01D8	; 0x8001d8 <N_Clock+0x2b>
    175a:	90 93 c2 01 	sts	0x01C2, r25	; 0x8001c2 <N_Clock+0x15>
    175e:	80 93 c1 01 	sts	0x01C1, r24	; 0x8001c1 <N_Clock+0x14>
    1762:	80 91 d9 01 	lds	r24, 0x01D9	; 0x8001d9 <N_Clock+0x2c>
    1766:	90 91 da 01 	lds	r25, 0x01DA	; 0x8001da <N_Clock+0x2d>
    176a:	90 93 c4 01 	sts	0x01C4, r25	; 0x8001c4 <N_Clock+0x17>
    176e:	80 93 c3 01 	sts	0x01C3, r24	; 0x8001c3 <N_Clock+0x16>
    1772:	80 91 dd 01 	lds	r24, 0x01DD	; 0x8001dd <N_Clock+0x30>
    1776:	90 91 de 01 	lds	r25, 0x01DE	; 0x8001de <N_Clock+0x31>
    177a:	a0 91 df 01 	lds	r26, 0x01DF	; 0x8001df <N_Clock+0x32>
    177e:	80 93 c7 01 	sts	0x01C7, r24	; 0x8001c7 <N_Clock+0x1a>
    1782:	90 93 c8 01 	sts	0x01C8, r25	; 0x8001c8 <N_Clock+0x1b>
    1786:	a0 93 c9 01 	sts	0x01C9, r26	; 0x8001c9 <N_Clock+0x1c>
    178a:	80 91 e0 01 	lds	r24, 0x01E0	; 0x8001e0 <N_Clock+0x33>
    178e:	90 91 e1 01 	lds	r25, 0x01E1	; 0x8001e1 <N_Clock+0x34>
    1792:	a0 91 e2 01 	lds	r26, 0x01E2	; 0x8001e2 <N_Clock+0x35>
    1796:	80 93 ca 01 	sts	0x01CA, r24	; 0x8001ca <N_Clock+0x1d>
    179a:	90 93 cb 01 	sts	0x01CB, r25	; 0x8001cb <N_Clock+0x1e>
    179e:	a0 93 cc 01 	sts	0x01CC, r26	; 0x8001cc <N_Clock+0x1f>
    17a2:	80 91 e3 01 	lds	r24, 0x01E3	; 0x8001e3 <N_Clock+0x36>
    17a6:	90 91 e4 01 	lds	r25, 0x01E4	; 0x8001e4 <N_Clock+0x37>
    17aa:	90 93 ce 01 	sts	0x01CE, r25	; 0x8001ce <N_Clock+0x21>
    17ae:	80 93 cd 01 	sts	0x01CD, r24	; 0x8001cd <N_Clock+0x20>
    17b2:	82 e0       	ldi	r24, 0x02	; 2
    17b4:	80 93 b9 01 	sts	0x01B9, r24	; 0x8001b9 <N_Clock+0xc>
    17b8:	08 95       	ret
    17ba:	80 91 ba 01 	lds	r24, 0x01BA	; 0x8001ba <N_Clock+0xd>
    17be:	88 23       	and	r24, r24
    17c0:	09 f4       	brne	.+2      	; 0x17c4 <Setting_Loop+0xc0>
    17c2:	4e c0       	rjmp	.+156    	; 0x1860 <Setting_Loop+0x15c>
    17c4:	24 d9       	rcall	.-3512   	; 0xa0e <EEPROM_Status>
    17c6:	81 11       	cpse	r24, r1
    17c8:	4b c0       	rjmp	.+150    	; 0x1860 <Setting_Loop+0x15c>
    17ca:	10 92 ba 01 	sts	0x01BA, r1	; 0x8001ba <N_Clock+0xd>
    17ce:	80 91 bb 01 	lds	r24, 0x01BB	; 0x8001bb <N_Clock+0xe>
    17d2:	80 93 d3 01 	sts	0x01D3, r24	; 0x8001d3 <N_Clock+0x26>
    17d6:	80 91 be 01 	lds	r24, 0x01BE	; 0x8001be <N_Clock+0x11>
    17da:	80 93 d5 01 	sts	0x01D5, r24	; 0x8001d5 <N_Clock+0x28>
    17de:	80 91 bc 01 	lds	r24, 0x01BC	; 0x8001bc <N_Clock+0xf>
    17e2:	80 93 d4 01 	sts	0x01D4, r24	; 0x8001d4 <N_Clock+0x27>
    17e6:	80 91 c0 01 	lds	r24, 0x01C0	; 0x8001c0 <N_Clock+0x13>
    17ea:	80 93 d6 01 	sts	0x01D6, r24	; 0x8001d6 <N_Clock+0x29>
    17ee:	80 91 c1 01 	lds	r24, 0x01C1	; 0x8001c1 <N_Clock+0x14>
    17f2:	90 91 c2 01 	lds	r25, 0x01C2	; 0x8001c2 <N_Clock+0x15>
    17f6:	90 93 d8 01 	sts	0x01D8, r25	; 0x8001d8 <N_Clock+0x2b>
    17fa:	80 93 d7 01 	sts	0x01D7, r24	; 0x8001d7 <N_Clock+0x2a>
    17fe:	80 91 c3 01 	lds	r24, 0x01C3	; 0x8001c3 <N_Clock+0x16>
    1802:	90 91 c4 01 	lds	r25, 0x01C4	; 0x8001c4 <N_Clock+0x17>
    1806:	90 93 da 01 	sts	0x01DA, r25	; 0x8001da <N_Clock+0x2d>
    180a:	80 93 d9 01 	sts	0x01D9, r24	; 0x8001d9 <N_Clock+0x2c>
    180e:	80 91 c7 01 	lds	r24, 0x01C7	; 0x8001c7 <N_Clock+0x1a>
    1812:	90 91 c8 01 	lds	r25, 0x01C8	; 0x8001c8 <N_Clock+0x1b>
    1816:	a0 91 c9 01 	lds	r26, 0x01C9	; 0x8001c9 <N_Clock+0x1c>
    181a:	80 93 dd 01 	sts	0x01DD, r24	; 0x8001dd <N_Clock+0x30>
    181e:	90 93 de 01 	sts	0x01DE, r25	; 0x8001de <N_Clock+0x31>
    1822:	a0 93 df 01 	sts	0x01DF, r26	; 0x8001df <N_Clock+0x32>
    1826:	80 91 ca 01 	lds	r24, 0x01CA	; 0x8001ca <N_Clock+0x1d>
    182a:	90 91 cb 01 	lds	r25, 0x01CB	; 0x8001cb <N_Clock+0x1e>
    182e:	a0 91 cc 01 	lds	r26, 0x01CC	; 0x8001cc <N_Clock+0x1f>
    1832:	80 93 e0 01 	sts	0x01E0, r24	; 0x8001e0 <N_Clock+0x33>
    1836:	90 93 e1 01 	sts	0x01E1, r25	; 0x8001e1 <N_Clock+0x34>
    183a:	a0 93 e2 01 	sts	0x01E2, r26	; 0x8001e2 <N_Clock+0x35>
    183e:	80 91 cd 01 	lds	r24, 0x01CD	; 0x8001cd <N_Clock+0x20>
    1842:	90 91 ce 01 	lds	r25, 0x01CE	; 0x8001ce <N_Clock+0x21>
    1846:	90 93 e4 01 	sts	0x01E4, r25	; 0x8001e4 <N_Clock+0x37>
    184a:	80 93 e3 01 	sts	0x01E3, r24	; 0x8001e3 <N_Clock+0x36>
    184e:	60 91 d1 01 	lds	r22, 0x01D1	; 0x8001d1 <N_Clock+0x24>
    1852:	70 91 d2 01 	lds	r23, 0x01D2	; 0x8001d2 <N_Clock+0x25>
    1856:	43 ed       	ldi	r20, 0xD3	; 211
    1858:	51 e0       	ldi	r21, 0x01	; 1
    185a:	80 e0       	ldi	r24, 0x00	; 0
    185c:	90 e0       	ldi	r25, 0x00	; 0
    185e:	e2 c8       	rjmp	.-3644   	; 0xa24 <EEPROM_Write>
    1860:	08 95       	ret

00001862 <main>:
    1862:	d4 d1       	rcall	.+936    	; 0x1c0c <Timer_Init>
    1864:	63 da       	rcall	.-2874   	; 0xd2c <I2C_Init>
    1866:	69 da       	rcall	.-2862   	; 0xd3a <I2C_Enable>
    1868:	dc d7       	rcall	.+4024   	; 0x2822 <__TEXT_REGION_LENGTH__+0x822>
    186a:	52 d0       	rcall	.+164    	; 0x1910 <RTC_Init>
    186c:	29 d4       	rcall	.+2130   	; 0x20c0 <__TEXT_REGION_LENGTH__+0xc0>
    186e:	28 df       	rcall	.-432    	; 0x16c0 <Setting_Init>
    1870:	2f df       	rcall	.-418    	; 0x16d0 <Nixie_Init>
    1872:	78 94       	sei
    1874:	df d1       	rcall	.+958    	; 0x1c34 <Timer_loop>
    1876:	ec d8       	rcall	.-3624   	; 0xa50 <I2C_Loop>
    1878:	04 d5       	rcall	.+2568   	; 0x2282 <__TEXT_REGION_LENGTH__+0x282>
    187a:	7d d0       	rcall	.+250    	; 0x1976 <RTC_Loop>
    187c:	31 d4       	rcall	.+2146   	; 0x20e0 <__TEXT_REGION_LENGTH__+0xe0>
    187e:	42 df       	rcall	.-380    	; 0x1704 <Setting_Loop>
    1880:	02 dc       	rcall	.-2044   	; 0x1086 <Nixie_Loop>
    1882:	1a d0       	rcall	.+52     	; 0x18b8 <Power_Loop>
    1884:	44 d8       	rcall	.-3960   	; 0x90e <EEPROM_Loop>
    1886:	f6 cf       	rjmp	.-20     	; 0x1874 <main+0x12>

00001888 <Power_Init>:
    1888:	82 e0       	ldi	r24, 0x02	; 2
    188a:	80 93 b0 00 	sts	0x00B0, r24	; 0x8000b0 <__EEPROM_REGION_LENGTH__+0x7f00b0>
    188e:	81 e0       	ldi	r24, 0x01	; 1
    1890:	80 93 b1 00 	sts	0x00B1, r24	; 0x8000b1 <__EEPROM_REGION_LENGTH__+0x7f00b1>
    1894:	88 e7       	ldi	r24, 0x78	; 120
    1896:	80 93 b3 00 	sts	0x00B3, r24	; 0x8000b3 <__EEPROM_REGION_LENGTH__+0x7f00b3>
    189a:	23 9a       	sbi	0x04, 3	; 4
    189c:	8b e2       	ldi	r24, 0x2B	; 43
    189e:	92 e0       	ldi	r25, 0x02	; 2
    18a0:	90 93 09 02 	sts	0x0209, r25	; 0x800209 <N_Power+0x4>
    18a4:	80 93 08 02 	sts	0x0208, r24	; 0x800208 <N_Power+0x3>
    18a8:	61 e0       	ldi	r22, 0x01	; 1
    18aa:	70 e0       	ldi	r23, 0x00	; 0
    18ac:	80 e0       	ldi	r24, 0x00	; 0
    18ae:	95 d4       	rcall	.+2346   	; 0x21da <__TEXT_REGION_LENGTH__+0x1da>
    18b0:	68 e5       	ldi	r22, 0x58	; 88
    18b2:	72 e0       	ldi	r23, 0x02	; 2
    18b4:	81 e0       	ldi	r24, 0x01	; 1
    18b6:	91 c4       	rjmp	.+2338   	; 0x21da <__TEXT_REGION_LENGTH__+0x1da>

000018b8 <Power_Loop>:
    18b8:	80 e0       	ldi	r24, 0x00	; 0
    18ba:	b3 d4       	rcall	.+2406   	; 0x2222 <__TEXT_REGION_LENGTH__+0x222>
    18bc:	88 23       	and	r24, r24
    18be:	31 f0       	breq	.+12     	; 0x18cc <Power_Loop+0x14>
    18c0:	80 e0       	ldi	r24, 0x00	; 0
    18c2:	99 d4       	rcall	.+2354   	; 0x21f6 <__TEXT_REGION_LENGTH__+0x1f6>
    18c4:	90 93 07 02 	sts	0x0207, r25	; 0x800207 <N_Power+0x2>
    18c8:	80 93 06 02 	sts	0x0206, r24	; 0x800206 <N_Power+0x1>
    18cc:	80 91 05 02 	lds	r24, 0x0205	; 0x800205 <N_Power>
    18d0:	88 23       	and	r24, r24
    18d2:	71 f0       	breq	.+28     	; 0x18f0 <Power_Loop+0x38>
    18d4:	81 30       	cpi	r24, 0x01	; 1
    18d6:	09 f0       	breq	.+2      	; 0x18da <Power_Loop+0x22>
    18d8:	08 95       	ret
    18da:	20 91 06 02 	lds	r18, 0x0206	; 0x800206 <N_Power+0x1>
    18de:	30 91 07 02 	lds	r19, 0x0207	; 0x800207 <N_Power+0x2>
    18e2:	80 91 08 02 	lds	r24, 0x0208	; 0x800208 <N_Power+0x3>
    18e6:	90 91 09 02 	lds	r25, 0x0209	; 0x800209 <N_Power+0x4>
    18ea:	82 17       	cp	r24, r18
    18ec:	93 07       	cpc	r25, r19
    18ee:	38 f4       	brcc	.+14     	; 0x18fe <Power_Loop+0x46>
    18f0:	80 91 b0 00 	lds	r24, 0x00B0	; 0x8000b0 <__EEPROM_REGION_LENGTH__+0x7f00b0>
    18f4:	8f 73       	andi	r24, 0x3F	; 63
    18f6:	80 93 b0 00 	sts	0x00B0, r24	; 0x8000b0 <__EEPROM_REGION_LENGTH__+0x7f00b0>
    18fa:	2b 98       	cbi	0x05, 3	; 5
    18fc:	08 95       	ret
    18fe:	80 91 b0 00 	lds	r24, 0x00B0	; 0x8000b0 <__EEPROM_REGION_LENGTH__+0x7f00b0>
    1902:	80 64       	ori	r24, 0x40	; 64
    1904:	80 93 b0 00 	sts	0x00B0, r24	; 0x8000b0 <__EEPROM_REGION_LENGTH__+0x7f00b0>
    1908:	08 95       	ret

0000190a <Power_Mode>:
    190a:	80 93 05 02 	sts	0x0205, r24	; 0x800205 <N_Power>
    190e:	08 95       	ret

00001910 <RTC_Init>:
    1910:	e7 ee       	ldi	r30, 0xE7	; 231
    1912:	f1 e0       	ldi	r31, 0x01	; 1
    1914:	88 e2       	ldi	r24, 0x28	; 40
    1916:	94 e0       	ldi	r25, 0x04	; 4
    1918:	95 87       	std	Z+13, r25	; 0x0d
    191a:	84 87       	std	Z+12, r24	; 0x0c
    191c:	87 e4       	ldi	r24, 0x47	; 71
    191e:	94 e0       	ldi	r25, 0x04	; 4
    1920:	97 87       	std	Z+15, r25	; 0x0f
    1922:	86 87       	std	Z+14, r24	; 0x0e
    1924:	85 e3       	ldi	r24, 0x35	; 53
    1926:	94 e0       	ldi	r25, 0x04	; 4
    1928:	91 8b       	std	Z+17, r25	; 0x11
    192a:	80 8b       	std	Z+16, r24	; 0x10
    192c:	8b e5       	ldi	r24, 0x5B	; 91
    192e:	94 e0       	ldi	r25, 0x04	; 4
    1930:	93 8b       	std	Z+19, r25	; 0x13
    1932:	82 8b       	std	Z+18, r24	; 0x12
    1934:	81 e4       	ldi	r24, 0x41	; 65
    1936:	94 e0       	ldi	r25, 0x04	; 4
    1938:	95 8b       	std	Z+21, r25	; 0x15
    193a:	84 8b       	std	Z+20, r24	; 0x14
    193c:	81 e8       	ldi	r24, 0x81	; 129
    193e:	94 e0       	ldi	r25, 0x04	; 4
    1940:	97 8b       	std	Z+23, r25	; 0x17
    1942:	86 8b       	std	Z+22, r24	; 0x16
    1944:	84 e4       	ldi	r24, 0x44	; 68
    1946:	94 e0       	ldi	r25, 0x04	; 4
    1948:	91 8f       	std	Z+25, r25	; 0x19
    194a:	80 8f       	std	Z+24, r24	; 0x18
    194c:	81 e0       	ldi	r24, 0x01	; 1
    194e:	87 83       	std	Z+7, r24	; 0x07
    1950:	08 95       	ret

00001952 <RTC_not_leap>:
    1952:	20 91 ec 01 	lds	r18, 0x01EC	; 0x8001ec <RTC+0x5>
    1956:	30 e0       	ldi	r19, 0x00	; 0
    1958:	20 53       	subi	r18, 0x30	; 48
    195a:	38 4f       	sbci	r19, 0xF8	; 248
    195c:	c9 01       	movw	r24, r18
    195e:	64 e6       	ldi	r22, 0x64	; 100
    1960:	70 e0       	ldi	r23, 0x00	; 0
    1962:	e2 d1       	rcall	.+964    	; 0x1d28 <__divmodhi4>
    1964:	89 2b       	or	r24, r25
    1966:	21 f4       	brne	.+8      	; 0x1970 <RTC_not_leap+0x1e>
    1968:	c9 01       	movw	r24, r18
    196a:	60 e9       	ldi	r22, 0x90	; 144
    196c:	71 e0       	ldi	r23, 0x01	; 1
    196e:	dc c1       	rjmp	.+952    	; 0x1d28 <__divmodhi4>
    1970:	82 2f       	mov	r24, r18
    1972:	83 70       	andi	r24, 0x03	; 3
    1974:	08 95       	ret

00001976 <RTC_Loop>:
    1976:	1f 93       	push	r17
    1978:	cf 93       	push	r28
    197a:	df 93       	push	r29
    197c:	a1 d1       	rcall	.+834    	; 0x1cc0 <Timer_Pulse_1s>
    197e:	18 2f       	mov	r17, r24
    1980:	80 91 ee 01 	lds	r24, 0x01EE	; 0x8001ee <RTC+0x7>
    1984:	81 30       	cpi	r24, 0x01	; 1
    1986:	41 f0       	breq	.+16     	; 0x1998 <RTC_Loop+0x22>
    1988:	08 f4       	brcc	.+2      	; 0x198c <RTC_Loop+0x16>
    198a:	b0 c0       	rjmp	.+352    	; 0x1aec <RTC_Loop+0x176>
    198c:	82 30       	cpi	r24, 0x02	; 2
    198e:	79 f0       	breq	.+30     	; 0x19ae <RTC_Loop+0x38>
    1990:	83 30       	cpi	r24, 0x03	; 3
    1992:	09 f4       	brne	.+2      	; 0x1996 <RTC_Loop+0x20>
    1994:	81 c0       	rjmp	.+258    	; 0x1a98 <RTC_Loop+0x122>
    1996:	a8 c0       	rjmp	.+336    	; 0x1ae8 <RTC_Loop+0x172>
    1998:	80 93 ed 01 	sts	0x01ED, r24	; 0x8001ed <RTC+0x6>
    199c:	81 e0       	ldi	r24, 0x01	; 1
    199e:	90 e0       	ldi	r25, 0x00	; 0
    19a0:	90 93 04 02 	sts	0x0204, r25	; 0x800204 <RTC+0x1d>
    19a4:	80 93 03 02 	sts	0x0203, r24	; 0x800203 <RTC+0x1c>
    19a8:	10 92 f2 01 	sts	0x01F2, r1	; 0x8001f2 <RTC+0xb>
    19ac:	17 c0       	rjmp	.+46     	; 0x19dc <RTC_Loop+0x66>
    19ae:	80 91 f1 01 	lds	r24, 0x01F1	; 0x8001f1 <RTC+0xa>
    19b2:	81 30       	cpi	r24, 0x01	; 1
    19b4:	b1 f0       	breq	.+44     	; 0x19e2 <RTC_Loop+0x6c>
    19b6:	80 91 03 02 	lds	r24, 0x0203	; 0x800203 <RTC+0x1c>
    19ba:	90 91 04 02 	lds	r25, 0x0204	; 0x800204 <RTC+0x1d>
    19be:	89 2b       	or	r24, r25
    19c0:	91 f4       	brne	.+36     	; 0x19e6 <RTC_Loop+0x70>
    19c2:	80 91 01 02 	lds	r24, 0x0201	; 0x800201 <RTC+0x1a>
    19c6:	90 91 02 02 	lds	r25, 0x0202	; 0x800202 <RTC+0x1b>
    19ca:	18 16       	cp	r1, r24
    19cc:	19 06       	cpc	r1, r25
    19ce:	14 f0       	brlt	.+4      	; 0x19d4 <RTC_Loop+0x5e>
    19d0:	8a e0       	ldi	r24, 0x0A	; 10
    19d2:	90 e0       	ldi	r25, 0x00	; 0
    19d4:	90 93 04 02 	sts	0x0204, r25	; 0x800204 <RTC+0x1d>
    19d8:	80 93 03 02 	sts	0x0203, r24	; 0x800203 <RTC+0x1c>
    19dc:	82 e0       	ldi	r24, 0x02	; 2
    19de:	80 93 f1 01 	sts	0x01F1, r24	; 0x8001f1 <RTC+0xa>
    19e2:	83 e0       	ldi	r24, 0x03	; 3
    19e4:	7e c0       	rjmp	.+252    	; 0x1ae2 <RTC_Loop+0x16c>
    19e6:	e0 91 f3 01 	lds	r30, 0x01F3	; 0x8001f3 <RTC+0xc>
    19ea:	f0 91 f4 01 	lds	r31, 0x01F4	; 0x8001f4 <RTC+0xd>
    19ee:	09 95       	icall
    19f0:	88 23       	and	r24, r24
    19f2:	f9 f0       	breq	.+62     	; 0x1a32 <RTC_Loop+0xbc>
    19f4:	80 91 f2 01 	lds	r24, 0x01F2	; 0x8001f2 <RTC+0xb>
    19f8:	81 11       	cpse	r24, r1
    19fa:	1b c0       	rjmp	.+54     	; 0x1a32 <RTC_Loop+0xbc>
    19fc:	81 e0       	ldi	r24, 0x01	; 1
    19fe:	80 93 f2 01 	sts	0x01F2, r24	; 0x8001f2 <RTC+0xb>
    1a02:	e0 91 fb 01 	lds	r30, 0x01FB	; 0x8001fb <RTC+0x14>
    1a06:	f0 91 fc 01 	lds	r31, 0x01FC	; 0x8001fc <RTC+0x15>
    1a0a:	09 95       	icall
    1a0c:	91 e0       	ldi	r25, 0x01	; 1
    1a0e:	81 11       	cpse	r24, r1
    1a10:	01 c0       	rjmp	.+2      	; 0x1a14 <RTC_Loop+0x9e>
    1a12:	90 e0       	ldi	r25, 0x00	; 0
    1a14:	90 93 ef 01 	sts	0x01EF, r25	; 0x8001ef <RTC+0x8>
    1a18:	88 23       	and	r24, r24
    1a1a:	59 f0       	breq	.+22     	; 0x1a32 <RTC_Loop+0xbc>
    1a1c:	e0 91 ff 01 	lds	r30, 0x01FF	; 0x8001ff <RTC+0x18>
    1a20:	f0 91 00 02 	lds	r31, 0x0200	; 0x800200 <RTC+0x19>
    1a24:	09 95       	icall
    1a26:	91 e0       	ldi	r25, 0x01	; 1
    1a28:	81 11       	cpse	r24, r1
    1a2a:	01 c0       	rjmp	.+2      	; 0x1a2e <RTC_Loop+0xb8>
    1a2c:	90 e0       	ldi	r25, 0x00	; 0
    1a2e:	90 93 f0 01 	sts	0x01F0, r25	; 0x8001f0 <RTC+0x9>
    1a32:	80 91 e7 01 	lds	r24, 0x01E7	; 0x8001e7 <RTC>
    1a36:	81 0f       	add	r24, r17
    1a38:	8c 33       	cpi	r24, 0x3C	; 60
    1a3a:	18 f4       	brcc	.+6      	; 0x1a42 <RTC_Loop+0xcc>
    1a3c:	80 93 e7 01 	sts	0x01E7, r24	; 0x8001e7 <RTC>
    1a40:	55 c0       	rjmp	.+170    	; 0x1aec <RTC_Loop+0x176>
    1a42:	10 92 e7 01 	sts	0x01E7, r1	; 0x8001e7 <RTC>
    1a46:	80 91 e8 01 	lds	r24, 0x01E8	; 0x8001e8 <RTC+0x1>
    1a4a:	8f 5f       	subi	r24, 0xFF	; 255
    1a4c:	80 93 e8 01 	sts	0x01E8, r24	; 0x8001e8 <RTC+0x1>
    1a50:	8c 33       	cpi	r24, 0x3C	; 60
    1a52:	08 f4       	brcc	.+2      	; 0x1a56 <RTC_Loop+0xe0>
    1a54:	4b c0       	rjmp	.+150    	; 0x1aec <RTC_Loop+0x176>
    1a56:	80 91 e9 01 	lds	r24, 0x01E9	; 0x8001e9 <RTC+0x2>
    1a5a:	8f 5f       	subi	r24, 0xFF	; 255
    1a5c:	80 93 e9 01 	sts	0x01E9, r24	; 0x8001e9 <RTC+0x2>
    1a60:	90 91 ef 01 	lds	r25, 0x01EF	; 0x8001ef <RTC+0x8>
    1a64:	99 23       	and	r25, r25
    1a66:	99 f0       	breq	.+38     	; 0x1a8e <RTC_Loop+0x118>
    1a68:	90 91 f0 01 	lds	r25, 0x01F0	; 0x8001f0 <RTC+0x9>
    1a6c:	99 23       	and	r25, r25
    1a6e:	39 f0       	breq	.+14     	; 0x1a7e <RTC_Loop+0x108>
    1a70:	8c 30       	cpi	r24, 0x0C	; 12
    1a72:	e0 f1       	brcs	.+120    	; 0x1aec <RTC_Loop+0x176>
    1a74:	10 92 e9 01 	sts	0x01E9, r1	; 0x8001e9 <RTC+0x2>
    1a78:	10 92 f0 01 	sts	0x01F0, r1	; 0x8001f0 <RTC+0x9>
    1a7c:	51 c0       	rjmp	.+162    	; 0x1b20 <RTC_Loop+0x1aa>
    1a7e:	8d 30       	cpi	r24, 0x0D	; 13
    1a80:	a8 f1       	brcs	.+106    	; 0x1aec <RTC_Loop+0x176>
    1a82:	81 e0       	ldi	r24, 0x01	; 1
    1a84:	80 93 e9 01 	sts	0x01E9, r24	; 0x8001e9 <RTC+0x2>
    1a88:	80 93 f0 01 	sts	0x01F0, r24	; 0x8001f0 <RTC+0x9>
    1a8c:	2f c0       	rjmp	.+94     	; 0x1aec <RTC_Loop+0x176>
    1a8e:	88 31       	cpi	r24, 0x18	; 24
    1a90:	68 f1       	brcs	.+90     	; 0x1aec <RTC_Loop+0x176>
    1a92:	10 92 e9 01 	sts	0x01E9, r1	; 0x8001e9 <RTC+0x2>
    1a96:	44 c0       	rjmp	.+136    	; 0x1b20 <RTC_Loop+0x1aa>
    1a98:	e0 91 f3 01 	lds	r30, 0x01F3	; 0x8001f3 <RTC+0xc>
    1a9c:	f0 91 f4 01 	lds	r31, 0x01F4	; 0x8001f4 <RTC+0xd>
    1aa0:	30 97       	sbiw	r30, 0x00	; 0
    1aa2:	d1 f0       	breq	.+52     	; 0x1ad8 <RTC_Loop+0x162>
    1aa4:	09 95       	icall
    1aa6:	88 23       	and	r24, r24
    1aa8:	b9 f0       	breq	.+46     	; 0x1ad8 <RTC_Loop+0x162>
    1aaa:	e0 91 f5 01 	lds	r30, 0x01F5	; 0x8001f5 <RTC+0xe>
    1aae:	f0 91 f6 01 	lds	r31, 0x01F6	; 0x8001f6 <RTC+0xf>
    1ab2:	30 97       	sbiw	r30, 0x00	; 0
    1ab4:	21 f0       	breq	.+8      	; 0x1abe <RTC_Loop+0x148>
    1ab6:	80 91 f1 01 	lds	r24, 0x01F1	; 0x8001f1 <RTC+0xa>
    1aba:	81 30       	cpi	r24, 0x01	; 1
    1abc:	51 f0       	breq	.+20     	; 0x1ad2 <RTC_Loop+0x15c>
    1abe:	e0 91 f7 01 	lds	r30, 0x01F7	; 0x8001f7 <RTC+0x10>
    1ac2:	f0 91 f8 01 	lds	r31, 0x01F8	; 0x8001f8 <RTC+0x11>
    1ac6:	30 97       	sbiw	r30, 0x00	; 0
    1ac8:	39 f0       	breq	.+14     	; 0x1ad8 <RTC_Loop+0x162>
    1aca:	80 91 f1 01 	lds	r24, 0x01F1	; 0x8001f1 <RTC+0xa>
    1ace:	82 30       	cpi	r24, 0x02	; 2
    1ad0:	19 f4       	brne	.+6      	; 0x1ad8 <RTC_Loop+0x162>
    1ad2:	87 ee       	ldi	r24, 0xE7	; 231
    1ad4:	91 e0       	ldi	r25, 0x01	; 1
    1ad6:	09 95       	icall
    1ad8:	10 92 f1 01 	sts	0x01F1, r1	; 0x8001f1 <RTC+0xa>
    1adc:	10 92 f2 01 	sts	0x01F2, r1	; 0x8001f2 <RTC+0xb>
    1ae0:	82 e0       	ldi	r24, 0x02	; 2
    1ae2:	80 93 ee 01 	sts	0x01EE, r24	; 0x8001ee <RTC+0x7>
    1ae6:	02 c0       	rjmp	.+4      	; 0x1aec <RTC_Loop+0x176>
    1ae8:	10 92 ee 01 	sts	0x01EE, r1	; 0x8001ee <RTC+0x7>
    1aec:	80 91 03 02 	lds	r24, 0x0203	; 0x800203 <RTC+0x1c>
    1af0:	90 91 04 02 	lds	r25, 0x0204	; 0x800204 <RTC+0x1d>
    1af4:	00 97       	sbiw	r24, 0x00	; 0
    1af6:	41 f0       	breq	.+16     	; 0x1b08 <RTC_Loop+0x192>
    1af8:	51 e0       	ldi	r21, 0x01	; 1
    1afa:	40 e0       	ldi	r20, 0x00	; 0
    1afc:	11 11       	cpse	r17, r1
    1afe:	01 c0       	rjmp	.+2      	; 0x1b02 <RTC_Loop+0x18c>
    1b00:	50 e0       	ldi	r21, 0x00	; 0
    1b02:	25 2f       	mov	r18, r21
    1b04:	34 2f       	mov	r19, r20
    1b06:	02 c0       	rjmp	.+4      	; 0x1b0c <RTC_Loop+0x196>
    1b08:	20 e0       	ldi	r18, 0x00	; 0
    1b0a:	30 e0       	ldi	r19, 0x00	; 0
    1b0c:	82 1b       	sub	r24, r18
    1b0e:	93 0b       	sbc	r25, r19
    1b10:	90 93 04 02 	sts	0x0204, r25	; 0x800204 <RTC+0x1d>
    1b14:	80 93 03 02 	sts	0x0203, r24	; 0x800203 <RTC+0x1c>
    1b18:	df 91       	pop	r29
    1b1a:	cf 91       	pop	r28
    1b1c:	1f 91       	pop	r17
    1b1e:	08 95       	ret
    1b20:	d0 91 ea 01 	lds	r29, 0x01EA	; 0x8001ea <RTC+0x3>
    1b24:	df 5f       	subi	r29, 0xFF	; 255
    1b26:	d0 93 ea 01 	sts	0x01EA, r29	; 0x8001ea <RTC+0x3>
    1b2a:	c0 91 eb 01 	lds	r28, 0x01EB	; 0x8001eb <RTC+0x4>
    1b2e:	c2 30       	cpi	r28, 0x02	; 2
    1b30:	79 f4       	brne	.+30     	; 0x1b50 <RTC_Loop+0x1da>
    1b32:	dc 31       	cpi	r29, 0x1C	; 28
    1b34:	d8 f2       	brcs	.-74     	; 0x1aec <RTC_Loop+0x176>
    1b36:	0d df       	rcall	.-486    	; 0x1952 <RTC_not_leap>
    1b38:	88 23       	and	r24, r24
    1b3a:	39 f0       	breq	.+14     	; 0x1b4a <RTC_Loop+0x1d4>
    1b3c:	81 e0       	ldi	r24, 0x01	; 1
    1b3e:	80 93 ea 01 	sts	0x01EA, r24	; 0x8001ea <RTC+0x3>
    1b42:	cf 5f       	subi	r28, 0xFF	; 255
    1b44:	cd 30       	cpi	r28, 0x0D	; 13
    1b46:	88 f4       	brcc	.+34     	; 0x1b6a <RTC_Loop+0x1f4>
    1b48:	1d c0       	rjmp	.+58     	; 0x1b84 <RTC_Loop+0x20e>
    1b4a:	dc 31       	cpi	r29, 0x1C	; 28
    1b4c:	b9 f7       	brne	.-18     	; 0x1b3c <RTC_Loop+0x1c6>
    1b4e:	ce cf       	rjmp	.-100    	; 0x1aec <RTC_Loop+0x176>
    1b50:	de 31       	cpi	r29, 0x1E	; 30
    1b52:	60 f2       	brcs	.-104    	; 0x1aec <RTC_Loop+0x176>
    1b54:	c4 30       	cpi	r28, 0x04	; 4
    1b56:	91 f3       	breq	.-28     	; 0x1b3c <RTC_Loop+0x1c6>
    1b58:	c7 30       	cpi	r28, 0x07	; 7
    1b5a:	81 f3       	breq	.-32     	; 0x1b3c <RTC_Loop+0x1c6>
    1b5c:	8c 2f       	mov	r24, r28
    1b5e:	8d 7f       	andi	r24, 0xFD	; 253
    1b60:	89 30       	cpi	r24, 0x09	; 9
    1b62:	61 f3       	breq	.-40     	; 0x1b3c <RTC_Loop+0x1c6>
    1b64:	de 31       	cpi	r29, 0x1E	; 30
    1b66:	51 f7       	brne	.-44     	; 0x1b3c <RTC_Loop+0x1c6>
    1b68:	c1 cf       	rjmp	.-126    	; 0x1aec <RTC_Loop+0x176>
    1b6a:	80 93 eb 01 	sts	0x01EB, r24	; 0x8001eb <RTC+0x4>
    1b6e:	80 91 ec 01 	lds	r24, 0x01EC	; 0x8001ec <RTC+0x5>
    1b72:	8f 5f       	subi	r24, 0xFF	; 255
    1b74:	84 36       	cpi	r24, 0x64	; 100
    1b76:	18 f4       	brcc	.+6      	; 0x1b7e <RTC_Loop+0x208>
    1b78:	80 93 ec 01 	sts	0x01EC, r24	; 0x8001ec <RTC+0x5>
    1b7c:	b7 cf       	rjmp	.-146    	; 0x1aec <RTC_Loop+0x176>
    1b7e:	10 92 ec 01 	sts	0x01EC, r1	; 0x8001ec <RTC+0x5>
    1b82:	b4 cf       	rjmp	.-152    	; 0x1aec <RTC_Loop+0x176>
    1b84:	c0 93 eb 01 	sts	0x01EB, r28	; 0x8001eb <RTC+0x4>
    1b88:	b1 cf       	rjmp	.-158    	; 0x1aec <RTC_Loop+0x176>

00001b8a <RTC_Set_DateTime>:
    1b8a:	ef 92       	push	r14
    1b8c:	0f 93       	push	r16
    1b8e:	cf 93       	push	r28
    1b90:	c2 2f       	mov	r28, r18
    1b92:	8c 33       	cpi	r24, 0x3C	; 60
    1b94:	10 f4       	brcc	.+4      	; 0x1b9a <RTC_Set_DateTime+0x10>
    1b96:	80 93 e7 01 	sts	0x01E7, r24	; 0x8001e7 <RTC>
    1b9a:	6c 33       	cpi	r22, 0x3C	; 60
    1b9c:	10 f4       	brcc	.+4      	; 0x1ba2 <RTC_Set_DateTime+0x18>
    1b9e:	60 93 e8 01 	sts	0x01E8, r22	; 0x8001e8 <RTC+0x1>
    1ba2:	80 91 ef 01 	lds	r24, 0x01EF	; 0x8001ef <RTC+0x8>
    1ba6:	81 11       	cpse	r24, r1
    1ba8:	05 c0       	rjmp	.+10     	; 0x1bb4 <RTC_Set_DateTime+0x2a>
    1baa:	48 31       	cpi	r20, 0x18	; 24
    1bac:	18 f4       	brcc	.+6      	; 0x1bb4 <RTC_Set_DateTime+0x2a>
    1bae:	40 93 e9 01 	sts	0x01E9, r20	; 0x8001e9 <RTC+0x2>
    1bb2:	09 c0       	rjmp	.+18     	; 0x1bc6 <RTC_Set_DateTime+0x3c>
    1bb4:	80 91 f0 01 	lds	r24, 0x01F0	; 0x8001f0 <RTC+0x9>
    1bb8:	88 23       	and	r24, r24
    1bba:	19 f0       	breq	.+6      	; 0x1bc2 <RTC_Set_DateTime+0x38>
    1bbc:	4c 30       	cpi	r20, 0x0C	; 12
    1bbe:	b8 f3       	brcs	.-18     	; 0x1bae <RTC_Set_DateTime+0x24>
    1bc0:	02 c0       	rjmp	.+4      	; 0x1bc6 <RTC_Set_DateTime+0x3c>
    1bc2:	4d 30       	cpi	r20, 0x0D	; 13
    1bc4:	a0 f3       	brcs	.-24     	; 0x1bae <RTC_Set_DateTime+0x24>
    1bc6:	83 e6       	ldi	r24, 0x63	; 99
    1bc8:	8e 15       	cp	r24, r14
    1bca:	10 f0       	brcs	.+4      	; 0x1bd0 <RTC_Set_DateTime+0x46>
    1bcc:	e0 92 ec 01 	sts	0x01EC, r14	; 0x8001ec <RTC+0x5>
    1bd0:	0d 30       	cpi	r16, 0x0D	; 13
    1bd2:	10 f4       	brcc	.+4      	; 0x1bd8 <RTC_Set_DateTime+0x4e>
    1bd4:	00 93 eb 01 	sts	0x01EB, r16	; 0x8001eb <RTC+0x4>
    1bd8:	80 91 eb 01 	lds	r24, 0x01EB	; 0x8001eb <RTC+0x4>
    1bdc:	82 30       	cpi	r24, 0x02	; 2
    1bde:	59 f4       	brne	.+22     	; 0x1bf6 <RTC_Set_DateTime+0x6c>
    1be0:	b8 de       	rcall	.-656    	; 0x1952 <RTC_not_leap>
    1be2:	88 23       	and	r24, r24
    1be4:	29 f0       	breq	.+10     	; 0x1bf0 <RTC_Set_DateTime+0x66>
    1be6:	cd 31       	cpi	r28, 0x1D	; 29
    1be8:	18 f4       	brcc	.+6      	; 0x1bf0 <RTC_Set_DateTime+0x66>
    1bea:	c0 93 ea 01 	sts	0x01EA, r28	; 0x8001ea <RTC+0x3>
    1bee:	07 c0       	rjmp	.+14     	; 0x1bfe <RTC_Set_DateTime+0x74>
    1bf0:	ce 31       	cpi	r28, 0x1E	; 30
    1bf2:	d8 f3       	brcs	.-10     	; 0x1bea <RTC_Set_DateTime+0x60>
    1bf4:	04 c0       	rjmp	.+8      	; 0x1bfe <RTC_Set_DateTime+0x74>
    1bf6:	cf 31       	cpi	r28, 0x1F	; 31
    1bf8:	c0 f3       	brcs	.-16     	; 0x1bea <RTC_Set_DateTime+0x60>
    1bfa:	cf 31       	cpi	r28, 0x1F	; 31
    1bfc:	b1 f3       	breq	.-20     	; 0x1bea <RTC_Set_DateTime+0x60>
    1bfe:	81 e0       	ldi	r24, 0x01	; 1
    1c00:	80 93 f1 01 	sts	0x01F1, r24	; 0x8001f1 <RTC+0xa>
    1c04:	cf 91       	pop	r28
    1c06:	0f 91       	pop	r16
    1c08:	ef 90       	pop	r14
    1c0a:	08 95       	ret

00001c0c <Timer_Init>:
    1c0c:	82 e0       	ldi	r24, 0x02	; 2
    1c0e:	84 bd       	out	0x24, r24	; 36
    1c10:	83 e0       	ldi	r24, 0x03	; 3
    1c12:	85 bd       	out	0x25, r24	; 37
    1c14:	ee e6       	ldi	r30, 0x6E	; 110
    1c16:	f0 e0       	ldi	r31, 0x00	; 0
    1c18:	80 81       	ld	r24, Z
    1c1a:	82 60       	ori	r24, 0x02	; 2
    1c1c:	80 83       	st	Z, r24
    1c1e:	8d e7       	ldi	r24, 0x7D	; 125
    1c20:	87 bd       	out	0x27, r24	; 39
    1c22:	aa 9a       	sbi	0x15, 2	; 21
    1c24:	08 95       	ret

00001c26 <Pulse_reset>:
    1c26:	ea e0       	ldi	r30, 0x0A	; 10
    1c28:	f2 e0       	ldi	r31, 0x02	; 2
    1c2a:	10 82       	st	Z, r1
    1c2c:	11 82       	std	Z+1, r1	; 0x01
    1c2e:	12 82       	std	Z+2, r1	; 0x02
    1c30:	13 82       	std	Z+3, r1	; 0x03
    1c32:	08 95       	ret

00001c34 <Timer_loop>:
    1c34:	f8 df       	rcall	.-16     	; 0x1c26 <Pulse_reset>
    1c36:	80 91 2d 01 	lds	r24, 0x012D	; 0x80012d <Timer_Flank>
    1c3a:	88 23       	and	r24, r24
    1c3c:	b9 f1       	breq	.+110    	; 0x1cac <Timer_loop+0x78>
    1c3e:	10 92 2d 01 	sts	0x012D, r1	; 0x80012d <Timer_Flank>
    1c42:	51 e0       	ldi	r21, 0x01	; 1
    1c44:	50 93 0a 02 	sts	0x020A, r21	; 0x80020a <Timers>
    1c48:	40 91 0e 02 	lds	r20, 0x020E	; 0x80020e <Timers+0x4>
    1c4c:	4f 5f       	subi	r20, 0xFF	; 255
    1c4e:	40 93 0e 02 	sts	0x020E, r20	; 0x80020e <Timers+0x4>
    1c52:	20 91 0f 02 	lds	r18, 0x020F	; 0x80020f <Timers+0x5>
    1c56:	30 91 10 02 	lds	r19, 0x0210	; 0x800210 <Timers+0x6>
    1c5a:	2f 5f       	subi	r18, 0xFF	; 255
    1c5c:	3f 4f       	sbci	r19, 0xFF	; 255
    1c5e:	30 93 10 02 	sts	0x0210, r19	; 0x800210 <Timers+0x6>
    1c62:	20 93 0f 02 	sts	0x020F, r18	; 0x80020f <Timers+0x5>
    1c66:	80 91 11 02 	lds	r24, 0x0211	; 0x800211 <Timers+0x7>
    1c6a:	90 91 12 02 	lds	r25, 0x0212	; 0x800212 <Timers+0x8>
    1c6e:	01 96       	adiw	r24, 0x01	; 1
    1c70:	90 93 12 02 	sts	0x0212, r25	; 0x800212 <Timers+0x8>
    1c74:	80 93 11 02 	sts	0x0211, r24	; 0x800211 <Timers+0x7>
    1c78:	4a 30       	cpi	r20, 0x0A	; 10
    1c7a:	20 f0       	brcs	.+8      	; 0x1c84 <Timer_loop+0x50>
    1c7c:	10 92 0e 02 	sts	0x020E, r1	; 0x80020e <Timers+0x4>
    1c80:	50 93 0b 02 	sts	0x020B, r21	; 0x80020b <Timers+0x1>
    1c84:	24 36       	cpi	r18, 0x64	; 100
    1c86:	31 05       	cpc	r19, r1
    1c88:	38 f0       	brcs	.+14     	; 0x1c98 <Timer_loop+0x64>
    1c8a:	10 92 10 02 	sts	0x0210, r1	; 0x800210 <Timers+0x6>
    1c8e:	10 92 0f 02 	sts	0x020F, r1	; 0x80020f <Timers+0x5>
    1c92:	21 e0       	ldi	r18, 0x01	; 1
    1c94:	20 93 0c 02 	sts	0x020C, r18	; 0x80020c <Timers+0x2>
    1c98:	88 3e       	cpi	r24, 0xE8	; 232
    1c9a:	93 40       	sbci	r25, 0x03	; 3
    1c9c:	38 f0       	brcs	.+14     	; 0x1cac <Timer_loop+0x78>
    1c9e:	10 92 12 02 	sts	0x0212, r1	; 0x800212 <Timers+0x8>
    1ca2:	10 92 11 02 	sts	0x0211, r1	; 0x800211 <Timers+0x7>
    1ca6:	81 e0       	ldi	r24, 0x01	; 1
    1ca8:	80 93 0d 02 	sts	0x020D, r24	; 0x80020d <Timers+0x3>
    1cac:	08 95       	ret

00001cae <Timer_Pulse_1ms>:
    1cae:	80 91 0a 02 	lds	r24, 0x020A	; 0x80020a <Timers>
    1cb2:	08 95       	ret

00001cb4 <Timer_Pulse_10ms>:
    1cb4:	80 91 0b 02 	lds	r24, 0x020B	; 0x80020b <Timers+0x1>
    1cb8:	08 95       	ret

00001cba <Timer_Pulse_100ms>:
    1cba:	80 91 0c 02 	lds	r24, 0x020C	; 0x80020c <Timers+0x2>
    1cbe:	08 95       	ret

00001cc0 <Timer_Pulse_1s>:
    1cc0:	80 91 0d 02 	lds	r24, 0x020D	; 0x80020d <Timers+0x3>
    1cc4:	08 95       	ret

00001cc6 <__vector_14>:
    1cc6:	1f 92       	push	r1
    1cc8:	0f 92       	push	r0
    1cca:	0f b6       	in	r0, 0x3f	; 63
    1ccc:	0f 92       	push	r0
    1cce:	11 24       	eor	r1, r1
    1cd0:	8f 93       	push	r24
    1cd2:	80 91 2d 01 	lds	r24, 0x012D	; 0x80012d <Timer_Flank>
    1cd6:	8f 5f       	subi	r24, 0xFF	; 255
    1cd8:	80 93 2d 01 	sts	0x012D, r24	; 0x80012d <Timer_Flank>
    1cdc:	8f 91       	pop	r24
    1cde:	0f 90       	pop	r0
    1ce0:	0f be       	out	0x3f, r0	; 63
    1ce2:	0f 90       	pop	r0
    1ce4:	1f 90       	pop	r1
    1ce6:	18 95       	reti

00001ce8 <__udivmodqi4>:
    1ce8:	99 1b       	sub	r25, r25
    1cea:	79 e0       	ldi	r23, 0x09	; 9
    1cec:	04 c0       	rjmp	.+8      	; 0x1cf6 <__udivmodqi4_ep>

00001cee <__udivmodqi4_loop>:
    1cee:	99 1f       	adc	r25, r25
    1cf0:	96 17       	cp	r25, r22
    1cf2:	08 f0       	brcs	.+2      	; 0x1cf6 <__udivmodqi4_ep>
    1cf4:	96 1b       	sub	r25, r22

00001cf6 <__udivmodqi4_ep>:
    1cf6:	88 1f       	adc	r24, r24
    1cf8:	7a 95       	dec	r23
    1cfa:	c9 f7       	brne	.-14     	; 0x1cee <__udivmodqi4_loop>
    1cfc:	80 95       	com	r24
    1cfe:	08 95       	ret

00001d00 <__udivmodhi4>:
    1d00:	aa 1b       	sub	r26, r26
    1d02:	bb 1b       	sub	r27, r27
    1d04:	51 e1       	ldi	r21, 0x11	; 17
    1d06:	07 c0       	rjmp	.+14     	; 0x1d16 <__udivmodhi4_ep>

00001d08 <__udivmodhi4_loop>:
    1d08:	aa 1f       	adc	r26, r26
    1d0a:	bb 1f       	adc	r27, r27
    1d0c:	a6 17       	cp	r26, r22
    1d0e:	b7 07       	cpc	r27, r23
    1d10:	10 f0       	brcs	.+4      	; 0x1d16 <__udivmodhi4_ep>
    1d12:	a6 1b       	sub	r26, r22
    1d14:	b7 0b       	sbc	r27, r23

00001d16 <__udivmodhi4_ep>:
    1d16:	88 1f       	adc	r24, r24
    1d18:	99 1f       	adc	r25, r25
    1d1a:	5a 95       	dec	r21
    1d1c:	a9 f7       	brne	.-22     	; 0x1d08 <__udivmodhi4_loop>
    1d1e:	80 95       	com	r24
    1d20:	90 95       	com	r25
    1d22:	bc 01       	movw	r22, r24
    1d24:	cd 01       	movw	r24, r26
    1d26:	08 95       	ret

00001d28 <__divmodhi4>:
    1d28:	97 fb       	bst	r25, 7
    1d2a:	07 2e       	mov	r0, r23
    1d2c:	16 f4       	brtc	.+4      	; 0x1d32 <__divmodhi4+0xa>
    1d2e:	00 94       	com	r0
    1d30:	06 d0       	rcall	.+12     	; 0x1d3e <__divmodhi4_neg1>
    1d32:	77 fd       	sbrc	r23, 7
    1d34:	08 d0       	rcall	.+16     	; 0x1d46 <__divmodhi4_neg2>
    1d36:	e4 df       	rcall	.-56     	; 0x1d00 <__udivmodhi4>
    1d38:	07 fc       	sbrc	r0, 7
    1d3a:	05 d0       	rcall	.+10     	; 0x1d46 <__divmodhi4_neg2>
    1d3c:	3e f4       	brtc	.+14     	; 0x1d4c <__divmodhi4_exit>

00001d3e <__divmodhi4_neg1>:
    1d3e:	90 95       	com	r25
    1d40:	81 95       	neg	r24
    1d42:	9f 4f       	sbci	r25, 0xFF	; 255
    1d44:	08 95       	ret

00001d46 <__divmodhi4_neg2>:
    1d46:	70 95       	com	r23
    1d48:	61 95       	neg	r22
    1d4a:	7f 4f       	sbci	r23, 0xFF	; 255

00001d4c <__divmodhi4_exit>:
    1d4c:	08 95       	ret

00001d4e <memcmp>:
    1d4e:	fb 01       	movw	r30, r22
    1d50:	dc 01       	movw	r26, r24
    1d52:	04 c0       	rjmp	.+8      	; 0x1d5c <memcmp+0xe>
    1d54:	8d 91       	ld	r24, X+
    1d56:	01 90       	ld	r0, Z+
    1d58:	80 19       	sub	r24, r0
    1d5a:	21 f4       	brne	.+8      	; 0x1d64 <memcmp+0x16>
    1d5c:	41 50       	subi	r20, 0x01	; 1
    1d5e:	50 40       	sbci	r21, 0x00	; 0
    1d60:	c8 f7       	brcc	.-14     	; 0x1d54 <memcmp+0x6>
    1d62:	88 1b       	sub	r24, r24
    1d64:	99 0b       	sbc	r25, r25
    1d66:	08 95       	ret

00001d68 <_exit>:
    1d68:	f8 94       	cli

00001d6a <__stop_program>:
    1d6a:	ff cf       	rjmp	.-2      	; 0x1d6a <__stop_program>
